; Listing generated by Microsoft (R) Optimizing Compiler Version 19.38.33134.0 

	TITLE	D:\labs\kpo\1sem\lab3\lab1\Debug\days.obj
	.686P
	.XMM
	include listing.inc
	.model	flat

INCLUDELIB MSVCRTD
INCLUDELIB OLDNAMES

msvcjmc	SEGMENT
__5CD2C691_concurrencysal@h DB 01H
__AC907F0D_sal@h DB 01H
__25E6C1AF_vadefs@h DB 01H
__1BAD82EE_vcruntime@h DB 01H
__FF70C7F3_xkeycheck@h DB 01H
__83726EB0_yvals_core@h DB 01H
__E39D81F6_limits@h DB 01H
__6C88BF80_climits DB 01H
__1B0272D9_corecrt@h DB 01H
__1FCB40CB_vcruntime_new@h DB 01H
__D06C1787_vcruntime_new_debug@h DB 01H
__935DC21B_crtdbg@h DB 01H
__5FE44752_crtdefs@h DB 01H
__99FA6215_use_ansi@h DB 01H
__5E272BCD_yvals@h DB 01H
__BB16330F_corecrt_math@h DB 01H
__3BF2A406_math@h DB 01H
__45DED006_corecrt_malloc@h DB 01H
__13F5961F_stddef@h DB 01H
__FD6DBD68_corecrt_search@h DB 01H
__E2E33A61_corecrt_wstdlib@h DB 01H
__6E5ACABA_stdlib@h DB 01H
__E8679D72_cstdlib DB 01H
__62F4505C_xtr1common DB 01H
__63E2EDD2_intrin0@inl@h DB 01H
__46C9FE59_intrin0@h DB 01H
__CE2A71BA_cmath DB 01H
__44420885_corecrt_stdio_config@h DB 01H
__AB601D8D_corecrt_wstdio@h DB 01H
__C1EC35D3_stdio@h DB 01H
__4B5D1055_cstdio DB 01H
__61CC25A1_errno@h DB 01H
__DDA1E9D6_vcruntime_string@h DB 01H
__E4C945B4_corecrt_memcpy_s@h DB 01H
__8EAFF484_corecrt_memory@h DB 01H
__6490AEC5_corecrt_wstring@h DB 01H
__E8295E1E_string@h DB 01H
__A4F53592_cstring DB 01H
__EF1F6BBA_corecrt_wconio@h DB 01H
__74484FB3_corecrt_wctype@h DB 01H
__3D1D430C_corecrt_wdirect@h DB 01H
__8ECB7138_corecrt_share@h DB 01H
__DB7FEBA6_corecrt_wio@h DB 01H
__9A9F0068_corecrt_wprocess@h DB 01H
__369A9BC3_corecrt_wtime@h DB 01H
__CE789B9D_types@h DB 01H
__9901C817_stat@h DB 01H
__3FCAD62E_wchar@h DB 01H
__D1D6C606_cwchar DB 01H
__92164330_iosfwd DB 01H
__4DAC47DF_cstddef DB 01H
__4614B0A2_initializer_list DB 01H
__5DEBAFC9_stdint@h DB 01H
__55397C0F_cstdint DB 01H
__B1D90138_type_traits DB 01H
__DF6A18F9_utility DB 01H
__8FD84684___msvc_iter_core@hpp DB 01H
__3133D734_xutility DB 01H
__209F6074_iterator DB 01H
__F7972D0B_share@h DB 01H
__471AC4AE___msvc_system_error_abi@hpp DB 01H
__D67C64AE_cerrno DB 01H
__FA77ED4C_malloc@h DB 01H
__89766DA4_corecrt_terminate@h DB 01H
__0BD5B7AD_eh@h DB 01H
__D88212D5_vcruntime_exception@h DB 01H
__97BB29C4_exception DB 01H
__D8A9F822___msvc_sanitizer_annotate_container@hpp DB 01H
__B9985323_float@h DB 01H
__3819DBD2_cfloat DB 01H
__5EFF96B6_limits DB 01H
__A524F45B_new DB 01H
__9DB7A512_xatomic@h DB 01H
__B5FF7B3A_xmemory DB 01H
__C12CFDA6_xstring DB 01H
__1EF51399_stdexcept DB 01H
__C0EAB0E0_xcall_once@h DB 01H
__F6B23EC2_xerrc@h DB 01H
__0A9237D2_time@h DB 01H
__0899EDB2_ctime DB 01H
__87F73475_xtimec@h DB 01H
__F8B455A6_xthreads@h DB 01H
__35CACA74_atomic DB 01H
__7FB7A2C0_system_error DB 01H
__9B36A01B_vcruntime_typeinfo@h DB 01H
__41EC242D_typeinfo DB 01H
__E2519A38_memory DB 01H
__CE14CD37_xfacet DB 01H
__AC3744CB___msvc_xlocinfo_types@hpp DB 01H
__1EC467ED_ctype@h DB 01H
__4496F7F2_cctype DB 01H
__791C33B7_locale@h DB 01H
__7BCB41A3_clocale DB 01H
__5E65C7E5_xlocinfo DB 01H
__1E128997_xlocale DB 01H
__6780B0F6_xiosbase DB 01H
__1C55AB25_streambuf DB 01H
__8095EF80_xlocnum DB 01H
__5DE9CE4D_ios DB 01H
__0D025353_ostream DB 01H
__6ED26669_istream DB 01H
__534AAD2B_iostream DB 01H
__F5D6DE08_stdafx@h DB 01H
__E210E423_days@h DB 01H
__6AA1543B_days@cpp DB 01H
msvcjmc	ENDS
PUBLIC	?__empty_global_delete@@YAXPAX@Z		; __empty_global_delete
PUBLIC	?__empty_global_delete@@YAXPAXI@Z		; __empty_global_delete
PUBLIC	?days@@YAHHHH_N@Z				; days
PUBLIC	__JustMyCode_Default
EXTRN	@_RTC_CheckStackVars@8:PROC
EXTRN	@__CheckForDebuggerJustMyCode@4:PROC
EXTRN	__RTC_CheckEsp:PROC
EXTRN	__RTC_InitBase:PROC
EXTRN	__RTC_Shutdown:PROC
;	COMDAT rtc$TMZ
rtc$TMZ	SEGMENT
__RTC_Shutdown.rtc$TMZ DD FLAT:__RTC_Shutdown
rtc$TMZ	ENDS
;	COMDAT rtc$IMZ
rtc$IMZ	SEGMENT
__RTC_InitBase.rtc$IMZ DD FLAT:__RTC_InitBase
rtc$IMZ	ENDS
; Function compile flags: /Odt
;	COMDAT __JustMyCode_Default
_TEXT	SEGMENT
__JustMyCode_Default PROC				; COMDAT
  00000	55		 push	 ebp
  00001	8b ec		 mov	 ebp, esp
  00003	5d		 pop	 ebp
  00004	c3		 ret	 0
__JustMyCode_Default ENDP
_TEXT	ENDS
; Function compile flags: /Odtp /RTCsu /ZI
; File D:\labs\kpo\1sem\lab3\lab1\days.cpp
;	COMDAT ?days@@YAHHHH_N@Z
_TEXT	SEGMENT
_i$1 = -68						; size = 4
_months$ = -56						; size = 52
_day$ = 8						; size = 4
_month$ = 12						; size = 4
_dr$ = 16						; size = 4
_result$ = 20						; size = 1
?days@@YAHHHH_N@Z PROC					; days, COMDAT

; 5    : int days(int day, int month, int dr, bool result) {

  00000	55		 push	 ebp
  00001	8b ec		 mov	 ebp, esp
  00003	81 ec 08 01 00
	00		 sub	 esp, 264		; 00000108H
  00009	53		 push	 ebx
  0000a	56		 push	 esi
  0000b	57		 push	 edi
  0000c	8d 7d b8	 lea	 edi, DWORD PTR [ebp-72]
  0000f	b9 12 00 00 00	 mov	 ecx, 18			; 00000012H
  00014	b8 cc cc cc cc	 mov	 eax, -858993460		; ccccccccH
  00019	f3 ab		 rep stosd
  0001b	b9 00 00 00 00	 mov	 ecx, OFFSET __6AA1543B_days@cpp
  00020	e8 00 00 00 00	 call	 @__CheckForDebuggerJustMyCode@4

; 6    : 
; 7    : 	int months[13] = { 0, 31, 28, 31,30,31,30,31,31,30,31,30,31 };

  00025	c7 45 c8 00 00
	00 00		 mov	 DWORD PTR _months$[ebp], 0
  0002c	c7 45 cc 1f 00
	00 00		 mov	 DWORD PTR _months$[ebp+4], 31 ; 0000001fH
  00033	c7 45 d0 1c 00
	00 00		 mov	 DWORD PTR _months$[ebp+8], 28 ; 0000001cH
  0003a	c7 45 d4 1f 00
	00 00		 mov	 DWORD PTR _months$[ebp+12], 31 ; 0000001fH
  00041	c7 45 d8 1e 00
	00 00		 mov	 DWORD PTR _months$[ebp+16], 30 ; 0000001eH
  00048	c7 45 dc 1f 00
	00 00		 mov	 DWORD PTR _months$[ebp+20], 31 ; 0000001fH
  0004f	c7 45 e0 1e 00
	00 00		 mov	 DWORD PTR _months$[ebp+24], 30 ; 0000001eH
  00056	c7 45 e4 1f 00
	00 00		 mov	 DWORD PTR _months$[ebp+28], 31 ; 0000001fH
  0005d	c7 45 e8 1f 00
	00 00		 mov	 DWORD PTR _months$[ebp+32], 31 ; 0000001fH
  00064	c7 45 ec 1e 00
	00 00		 mov	 DWORD PTR _months$[ebp+36], 30 ; 0000001eH
  0006b	c7 45 f0 1f 00
	00 00		 mov	 DWORD PTR _months$[ebp+40], 31 ; 0000001fH
  00072	c7 45 f4 1e 00
	00 00		 mov	 DWORD PTR _months$[ebp+44], 30 ; 0000001eH
  00079	c7 45 f8 1f 00
	00 00		 mov	 DWORD PTR _months$[ebp+48], 31 ; 0000001fH

; 8    : 
; 9    : 	if (result)

  00080	0f b6 45 14	 movzx	 eax, BYTE PTR _result$[ebp]
  00084	85 c0		 test	 eax, eax
  00086	74 0f		 je	 SHORT $LN5@days

; 10   : 	{
; 11   : 		months[2] = 29;

  00088	b8 04 00 00 00	 mov	 eax, 4
  0008d	d1 e0		 shl	 eax, 1
  0008f	c7 44 05 c8 1d
	00 00 00	 mov	 DWORD PTR _months$[ebp+eax], 29 ; 0000001dH
$LN5@days:

; 12   : 	}
; 13   : 	dr = day;

  00097	8b 45 08	 mov	 eax, DWORD PTR _day$[ebp]
  0009a	89 45 10	 mov	 DWORD PTR _dr$[ebp], eax

; 14   : 	for (int i = 0; i < month; i++) {

  0009d	c7 45 bc 00 00
	00 00		 mov	 DWORD PTR _i$1[ebp], 0
  000a4	eb 09		 jmp	 SHORT $LN4@days
$LN2@days:
  000a6	8b 45 bc	 mov	 eax, DWORD PTR _i$1[ebp]
  000a9	83 c0 01	 add	 eax, 1
  000ac	89 45 bc	 mov	 DWORD PTR _i$1[ebp], eax
$LN4@days:
  000af	8b 45 bc	 mov	 eax, DWORD PTR _i$1[ebp]
  000b2	3b 45 0c	 cmp	 eax, DWORD PTR _month$[ebp]
  000b5	7d 0f		 jge	 SHORT $LN3@days

; 15   : 		dr += months[i];

  000b7	8b 45 bc	 mov	 eax, DWORD PTR _i$1[ebp]
  000ba	8b 4d 10	 mov	 ecx, DWORD PTR _dr$[ebp]
  000bd	03 4c 85 c8	 add	 ecx, DWORD PTR _months$[ebp+eax*4]
  000c1	89 4d 10	 mov	 DWORD PTR _dr$[ebp], ecx

; 16   : 	}

  000c4	eb e0		 jmp	 SHORT $LN2@days
$LN3@days:

; 17   : 
; 18   : 	return dr;

  000c6	8b 45 10	 mov	 eax, DWORD PTR _dr$[ebp]

; 19   : }

  000c9	52		 push	 edx
  000ca	8b cd		 mov	 ecx, ebp
  000cc	50		 push	 eax
  000cd	8d 15 00 00 00
	00		 lea	 edx, DWORD PTR $LN9@days
  000d3	e8 00 00 00 00	 call	 @_RTC_CheckStackVars@8
  000d8	58		 pop	 eax
  000d9	5a		 pop	 edx
  000da	5f		 pop	 edi
  000db	5e		 pop	 esi
  000dc	5b		 pop	 ebx
  000dd	81 c4 08 01 00
	00		 add	 esp, 264		; 00000108H
  000e3	3b ec		 cmp	 ebp, esp
  000e5	e8 00 00 00 00	 call	 __RTC_CheckEsp
  000ea	8b e5		 mov	 esp, ebp
  000ec	5d		 pop	 ebp
  000ed	c3		 ret	 0
  000ee	66 90		 npad	 2
$LN9@days:
  000f0	01 00 00 00	 DD	 1
  000f4	00 00 00 00	 DD	 $LN8@days
$LN8@days:
  000f8	c8 ff ff ff	 DD	 -56			; ffffffc8H
  000fc	34 00 00 00	 DD	 52			; 00000034H
  00100	00 00 00 00	 DD	 $LN7@days
$LN7@days:
  00104	6d		 DB	 109			; 0000006dH
  00105	6f		 DB	 111			; 0000006fH
  00106	6e		 DB	 110			; 0000006eH
  00107	74		 DB	 116			; 00000074H
  00108	68		 DB	 104			; 00000068H
  00109	73		 DB	 115			; 00000073H
  0010a	00		 DB	 0
?days@@YAHHHH_N@Z ENDP					; days
_TEXT	ENDS
; Function compile flags: /Odtp /RTCsu /ZI
; File D:\labs\kpo\1sem\lab3\lab1\days.cpp
;	COMDAT ?__empty_global_delete@@YAXPAXI@Z
_TEXT	SEGMENT
___formal$ = 8						; size = 4
___formal$ = 12						; size = 4
?__empty_global_delete@@YAXPAXI@Z PROC			; __empty_global_delete, COMDAT

  00000	55		 push	 ebp
  00001	8b ec		 mov	 ebp, esp
  00003	81 ec c0 00 00
	00		 sub	 esp, 192		; 000000c0H
  00009	53		 push	 ebx
  0000a	56		 push	 esi
  0000b	57		 push	 edi
  0000c	8b fd		 mov	 edi, ebp
  0000e	33 c9		 xor	 ecx, ecx
  00010	b8 cc cc cc cc	 mov	 eax, -858993460		; ccccccccH
  00015	f3 ab		 rep stosd
  00017	b9 00 00 00 00	 mov	 ecx, OFFSET __6AA1543B_days@cpp
  0001c	e8 00 00 00 00	 call	 @__CheckForDebuggerJustMyCode@4
  00021	5f		 pop	 edi
  00022	5e		 pop	 esi
  00023	5b		 pop	 ebx
  00024	81 c4 c0 00 00
	00		 add	 esp, 192		; 000000c0H
  0002a	3b ec		 cmp	 ebp, esp
  0002c	e8 00 00 00 00	 call	 __RTC_CheckEsp
  00031	8b e5		 mov	 esp, ebp
  00033	5d		 pop	 ebp
  00034	c3		 ret	 0
?__empty_global_delete@@YAXPAXI@Z ENDP			; __empty_global_delete
_TEXT	ENDS
; Function compile flags: /Odtp /RTCsu /ZI
; File D:\labs\kpo\1sem\lab3\lab1\days.cpp
;	COMDAT ?__empty_global_delete@@YAXPAX@Z
_TEXT	SEGMENT
___formal$ = 8						; size = 4
?__empty_global_delete@@YAXPAX@Z PROC			; __empty_global_delete, COMDAT

  00000	55		 push	 ebp
  00001	8b ec		 mov	 ebp, esp
  00003	81 ec c0 00 00
	00		 sub	 esp, 192		; 000000c0H
  00009	53		 push	 ebx
  0000a	56		 push	 esi
  0000b	57		 push	 edi
  0000c	8b fd		 mov	 edi, ebp
  0000e	33 c9		 xor	 ecx, ecx
  00010	b8 cc cc cc cc	 mov	 eax, -858993460		; ccccccccH
  00015	f3 ab		 rep stosd
  00017	b9 00 00 00 00	 mov	 ecx, OFFSET __6AA1543B_days@cpp
  0001c	e8 00 00 00 00	 call	 @__CheckForDebuggerJustMyCode@4
  00021	5f		 pop	 edi
  00022	5e		 pop	 esi
  00023	5b		 pop	 ebx
  00024	81 c4 c0 00 00
	00		 add	 esp, 192		; 000000c0H
  0002a	3b ec		 cmp	 ebp, esp
  0002c	e8 00 00 00 00	 call	 __RTC_CheckEsp
  00031	8b e5		 mov	 esp, ebp
  00033	5d		 pop	 ebp
  00034	c3		 ret	 0
?__empty_global_delete@@YAXPAX@Z ENDP			; __empty_global_delete
_TEXT	ENDS
END
