; Listing generated by Microsoft (R) Optimizing Compiler Version 19.38.33134.0 

include listing.inc

INCLUDELIB MSVCRTD
INCLUDELIB OLDNAMES

msvcjmc	SEGMENT
__B62A8560_lab1@pch DB 01H
__BB16330F_corecrt_math@h DB 01H
__6E5ACABA_stdlib@h DB 01H
__7FB7A2C0_system_error DB 01H
__1EF51399_stdexcept DB 01H
__5E65C7E5_xlocinfo DB 01H
__41EC242D_typeinfo DB 01H
__9B36A01B_vcruntime_typeinfo@h DB 01H
__9CB7F2F2_stdafx@cpp DB 01H
__E2519A38_memory DB 01H
__5EFF96B6_limits DB 01H
__97BB29C4_exception DB 01H
__D88212D5_vcruntime_exception@h DB 01H
__DF6A18F9_utility DB 01H
__3133D734_xutility DB 01H
__1FCB40CB_vcruntime_new@h DB 01H
__B1D90138_type_traits DB 01H
__B5FF7B3A_xmemory DB 01H
__1C55AB25_streambuf DB 01H
__C12CFDA6_xstring DB 01H
__C1EC35D3_stdio@h DB 01H
__44420885_corecrt_stdio_config@h DB 01H
__8095EF80_xlocnum DB 01H
__5DE9CE4D_ios DB 01H
__209F6074_iterator DB 01H
__6780B0F6_xiosbase DB 01H
__1E128997_xlocale DB 01H
__CE14CD37_xfacet DB 01H
__0D025353_ostream DB 01H
__6ED26669_istream DB 01H
__FCEEAB75_birthday@h DB 01H
__E44ACEA6_days@h DB 01H
__464727F5_ex1@cpp DB 01H
__FC7B6850_leapYear@h DB 01H
__68997D8A_stdafx@h DB 01H
msvcjmc	ENDS
PUBLIC	?__empty_global_delete@@YAXPEAX@Z		; __empty_global_delete
PUBLIC	?__empty_global_delete@@YAXPEAX_K@Z		; __empty_global_delete
PUBLIC	?length@?$_Narrow_char_traits@DH@std@@SA_KQEBD@Z ; std::_Narrow_char_traits<char,int>::length
PUBLIC	?eq_int_type@?$_Narrow_char_traits@DH@std@@SA_NHH@Z ; std::_Narrow_char_traits<char,int>::eq_int_type
PUBLIC	?eof@?$_Narrow_char_traits@DH@std@@SAHXZ	; std::_Narrow_char_traits<char,int>::eof
PUBLIC	main
PUBLIC	??$?6U?$char_traits@D@std@@@std@@YAAEAV?$basic_ostream@DU?$char_traits@D@std@@@0@AEAV10@PEBD@Z ; std::operator<<<std::char_traits<char> >
PUBLIC	??$?6U?$char_traits@D@std@@@std@@YAAEAV?$basic_ostream@DU?$char_traits@D@std@@@0@AEAV10@D@Z ; std::operator<<<std::char_traits<char> >
PUBLIC	??$endl@DU?$char_traits@D@std@@@std@@YAAEAV?$basic_ostream@DU?$char_traits@D@std@@@0@AEAV10@@Z ; std::endl<char,std::char_traits<char> >
PUBLIC	??0_Sentry_base@?$basic_ostream@DU?$char_traits@D@std@@@std@@QEAA@AEAV12@@Z ; std::basic_ostream<char,std::char_traits<char> >::_Sentry_base::_Sentry_base
PUBLIC	??1_Sentry_base@?$basic_ostream@DU?$char_traits@D@std@@@std@@QEAA@XZ ; std::basic_ostream<char,std::char_traits<char> >::_Sentry_base::~_Sentry_base
PUBLIC	??0sentry@?$basic_ostream@DU?$char_traits@D@std@@@std@@QEAA@AEAV12@@Z ; std::basic_ostream<char,std::char_traits<char> >::sentry::sentry
PUBLIC	??1sentry@?$basic_ostream@DU?$char_traits@D@std@@@std@@QEAA@XZ ; std::basic_ostream<char,std::char_traits<char> >::sentry::~sentry
PUBLIC	??Bsentry@?$basic_ostream@DU?$char_traits@D@std@@@std@@QEBA_NXZ ; std::basic_ostream<char,std::char_traits<char> >::sentry::operator bool
PUBLIC	__JustMyCode_Default
PUBLIC	??_C@_02FIDBHGA@ru@				; `string'
PUBLIC	??_C@_0P@DEBEIPA@?B?b?e?d?h?r?e?5?d?e?m?$PM?3?5@ ; `string'
PUBLIC	??_C@_0BA@OFEBEDGL@?B?b?e?d?h?r?e?5?l?e?q?$PP?v?3?5@ ; `string'
PUBLIC	??_C@_0O@POBGICEA@?B?b?e?d?h?r?e?5?c?n?d?3?5@	; `string'
PUBLIC	??_C@_03LCPHGAHP@cls@				; `string'
PUBLIC	??_C@_04CCHLMOGN@fail@				; `string'
PUBLIC	??_C@_0CA@BIFHHEDL@?5?c?n?d?5?$PP?b?k?$PP?e?r?q?$PP?5?b?h?q?n?j?n?q?m?$PL?l?5?c?n?d?n?l?4@ ; `string'
PUBLIC	??_C@_0CD@BCOCLHI@?5?c?n?d?5?m?e?5?$PP?b?k?$PP?e?r?q?$PP?5?b?h?q?n?j?n?q?m?$PL?l?5?c?n?d@ ; `string'
PUBLIC	??_C@_07IIFCBIAK@?5?c?n?d?s?3?5@		; `string'
PUBLIC	??_C@_0BI@LBHFLDPH@?O?n?p?$PP?d?j?n?b?$PL?i?5?m?n?l?e?p?5?d?m?$PP?5?b?5@ ; `string'
PUBLIC	??_C@_0BD@OECKIDLN@?5?d?m?e?i?5?d?n?59?5?m?n?$PP?a?p?$PP?4@ ; `string'
PUBLIC	??_C@_09LJIHIGEJ@?N?q?r?$OA?k?n?q?$PM?5@	; `string'
EXTRN	__imp_exit:PROC
EXTRN	__imp_system:PROC
EXTRN	strlen:PROC
EXTRN	?uncaught_exception@std@@YA_NXZ:PROC		; std::uncaught_exception
EXTRN	__imp_setlocale:PROC
EXTRN	__imp_?good@ios_base@std@@QEBA_NXZ:PROC
EXTRN	__imp_?flags@ios_base@std@@QEBAHXZ:PROC
EXTRN	__imp_?width@ios_base@std@@QEBA_JXZ:PROC
EXTRN	__imp_?width@ios_base@std@@QEAA_J_J@Z:PROC
EXTRN	__imp_?sputc@?$basic_streambuf@DU?$char_traits@D@std@@@std@@QEAAHD@Z:PROC
EXTRN	__imp_?sputn@?$basic_streambuf@DU?$char_traits@D@std@@@std@@QEAA_JPEBD_J@Z:PROC
EXTRN	__imp_?setstate@?$basic_ios@DU?$char_traits@D@std@@@std@@QEAAXH_N@Z:PROC
EXTRN	__imp_?tie@?$basic_ios@DU?$char_traits@D@std@@@std@@QEBAPEAV?$basic_ostream@DU?$char_traits@D@std@@@2@XZ:PROC
EXTRN	__imp_?rdbuf@?$basic_ios@DU?$char_traits@D@std@@@std@@QEBAPEAV?$basic_streambuf@DU?$char_traits@D@std@@@2@XZ:PROC
EXTRN	__imp_?fill@?$basic_ios@DU?$char_traits@D@std@@@std@@QEBADXZ:PROC
EXTRN	__imp_?widen@?$basic_ios@DU?$char_traits@D@std@@@std@@QEBADD@Z:PROC
EXTRN	__imp_?_Osfx@?$basic_ostream@DU?$char_traits@D@std@@@std@@QEAAXXZ:PROC
EXTRN	__imp_??6?$basic_ostream@DU?$char_traits@D@std@@@std@@QEAAAEAV01@P6AAEAV01@AEAV01@@Z@Z:PROC
EXTRN	__imp_??6?$basic_ostream@DU?$char_traits@D@std@@@std@@QEAAAEAV01@H@Z:PROC
EXTRN	__imp_?put@?$basic_ostream@DU?$char_traits@D@std@@@std@@QEAAAEAV12@D@Z:PROC
EXTRN	__imp_?flush@?$basic_ostream@DU?$char_traits@D@std@@@std@@QEAAAEAV12@XZ:PROC
EXTRN	__imp_??5?$basic_istream@DU?$char_traits@D@std@@@std@@QEAAAEAV01@AEAH@Z:PROC
EXTRN	?leapYear@@YA_NH@Z:PROC				; leapYear
EXTRN	?days@@YAHHHH_N@Z:PROC				; days
EXTRN	?birthday@@YAHHH_N@Z:PROC			; birthday
EXTRN	_RTC_CheckStackVars:PROC
EXTRN	_RTC_InitBase:PROC
EXTRN	_RTC_Shutdown:PROC
EXTRN	__CheckForDebuggerJustMyCode:PROC
EXTRN	__CxxFrameHandler4:PROC
EXTRN	__GSHandlerCheck:PROC
EXTRN	__GSHandlerCheck_EH4:PROC
EXTRN	__security_check_cookie:PROC
EXTRN	__imp_?cin@std@@3V?$basic_istream@DU?$char_traits@D@std@@@1@A:BYTE
EXTRN	__imp_?cout@std@@3V?$basic_ostream@DU?$char_traits@D@std@@@1@A:BYTE
EXTRN	__security_cookie:QWORD
;	COMDAT pdata
pdata	SEGMENT
$pdata$?__empty_global_delete@@YAXPEAX@Z DD imagerel $LN3
	DD	imagerel $LN3+41
	DD	imagerel $unwind$?__empty_global_delete@@YAXPEAX@Z
pdata	ENDS
;	COMDAT pdata
pdata	SEGMENT
$pdata$?__empty_global_delete@@YAXPEAX_K@Z DD imagerel $LN3
	DD	imagerel $LN3+46
	DD	imagerel $unwind$?__empty_global_delete@@YAXPEAX_K@Z
pdata	ENDS
;	COMDAT pdata
pdata	SEGMENT
$pdata$?length@?$_Narrow_char_traits@DH@std@@SA_KQEBD@Z DD imagerel $LN3
	DD	imagerel $LN3+53
	DD	imagerel $unwind$?length@?$_Narrow_char_traits@DH@std@@SA_KQEBD@Z
pdata	ENDS
;	COMDAT pdata
pdata	SEGMENT
$pdata$?eq_int_type@?$_Narrow_char_traits@DH@std@@SA_NHH@Z DD imagerel $LN5
	DD	imagerel $LN5+87
	DD	imagerel $unwind$?eq_int_type@?$_Narrow_char_traits@DH@std@@SA_NHH@Z
pdata	ENDS
;	COMDAT pdata
pdata	SEGMENT
$pdata$?eof@?$_Narrow_char_traits@DH@std@@SAHXZ DD imagerel $LN3
	DD	imagerel $LN3+42
	DD	imagerel $unwind$?eof@?$_Narrow_char_traits@DH@std@@SAHXZ
pdata	ENDS
;	COMDAT pdata
pdata	SEGMENT
$pdata$main DD	imagerel $LN7
	DD	imagerel $LN7+952
	DD	imagerel $unwind$main
pdata	ENDS
;	COMDAT pdata
pdata	SEGMENT
$pdata$??$?6U?$char_traits@D@std@@@std@@YAAEAV?$basic_ostream@DU?$char_traits@D@std@@@0@AEAV10@PEBD@Z DD imagerel $LN25
	DD	imagerel $LN25+943
	DD	imagerel $unwind$??$?6U?$char_traits@D@std@@@std@@YAAEAV?$basic_ostream@DU?$char_traits@D@std@@@0@AEAV10@PEBD@Z
pdata	ENDS
;	COMDAT pdata
pdata	SEGMENT
$pdata$?dtor$0@?0???$?6U?$char_traits@D@std@@@std@@YAAEAV?$basic_ostream@DU?$char_traits@D@std@@@0@AEAV10@PEBD@Z@4HA DD imagerel ?dtor$0@?0???$?6U?$char_traits@D@std@@@std@@YAAEAV?$basic_ostream@DU?$char_traits@D@std@@@0@AEAV10@PEBD@Z@4HA
	DD	imagerel ?dtor$0@?0???$?6U?$char_traits@D@std@@@std@@YAAEAV?$basic_ostream@DU?$char_traits@D@std@@@0@AEAV10@PEBD@Z@4HA+36
	DD	imagerel $unwind$?dtor$0@?0???$?6U?$char_traits@D@std@@@std@@YAAEAV?$basic_ostream@DU?$char_traits@D@std@@@0@AEAV10@PEBD@Z@4HA
pdata	ENDS
;	COMDAT pdata
pdata	SEGMENT
$pdata$?catch$1@?0???$?6U?$char_traits@D@std@@@std@@YAAEAV?$basic_ostream@DU?$char_traits@D@std@@@0@AEAV10@PEBD@Z@4HA DD imagerel ?catch$1@?0???$?6U?$char_traits@D@std@@@std@@YAAEAV?$basic_ostream@DU?$char_traits@D@std@@@0@AEAV10@PEBD@Z@4HA
	DD	imagerel ?catch$1@?0???$?6U?$char_traits@D@std@@@std@@YAAEAV?$basic_ostream@DU?$char_traits@D@std@@@0@AEAV10@PEBD@Z@4HA+80
	DD	imagerel $unwind$?catch$1@?0???$?6U?$char_traits@D@std@@@std@@YAAEAV?$basic_ostream@DU?$char_traits@D@std@@@0@AEAV10@PEBD@Z@4HA
pdata	ENDS
;	COMDAT pdata
pdata	SEGMENT
$pdata$??$?6U?$char_traits@D@std@@@std@@YAAEAV?$basic_ostream@DU?$char_traits@D@std@@@0@AEAV10@D@Z DD imagerel $LN23
	DD	imagerel $LN23+886
	DD	imagerel $unwind$??$?6U?$char_traits@D@std@@@std@@YAAEAV?$basic_ostream@DU?$char_traits@D@std@@@0@AEAV10@D@Z
pdata	ENDS
;	COMDAT pdata
pdata	SEGMENT
$pdata$?dtor$0@?0???$?6U?$char_traits@D@std@@@std@@YAAEAV?$basic_ostream@DU?$char_traits@D@std@@@0@AEAV10@D@Z@4HA DD imagerel ?dtor$0@?0???$?6U?$char_traits@D@std@@@std@@YAAEAV?$basic_ostream@DU?$char_traits@D@std@@@0@AEAV10@D@Z@4HA
	DD	imagerel ?dtor$0@?0???$?6U?$char_traits@D@std@@@std@@YAAEAV?$basic_ostream@DU?$char_traits@D@std@@@0@AEAV10@D@Z@4HA+36
	DD	imagerel $unwind$?dtor$0@?0???$?6U?$char_traits@D@std@@@std@@YAAEAV?$basic_ostream@DU?$char_traits@D@std@@@0@AEAV10@D@Z@4HA
pdata	ENDS
;	COMDAT pdata
pdata	SEGMENT
$pdata$?catch$1@?0???$?6U?$char_traits@D@std@@@std@@YAAEAV?$basic_ostream@DU?$char_traits@D@std@@@0@AEAV10@D@Z@4HA DD imagerel ?catch$1@?0???$?6U?$char_traits@D@std@@@std@@YAAEAV?$basic_ostream@DU?$char_traits@D@std@@@0@AEAV10@D@Z@4HA
	DD	imagerel ?catch$1@?0???$?6U?$char_traits@D@std@@@std@@YAAEAV?$basic_ostream@DU?$char_traits@D@std@@@0@AEAV10@D@Z@4HA+80
	DD	imagerel $unwind$?catch$1@?0???$?6U?$char_traits@D@std@@@std@@YAAEAV?$basic_ostream@DU?$char_traits@D@std@@@0@AEAV10@D@Z@4HA
pdata	ENDS
;	COMDAT pdata
pdata	SEGMENT
$pdata$??$endl@DU?$char_traits@D@std@@@std@@YAAEAV?$basic_ostream@DU?$char_traits@D@std@@@0@AEAV10@@Z DD imagerel $LN3
	DD	imagerel $LN3+115
	DD	imagerel $unwind$??$endl@DU?$char_traits@D@std@@@std@@YAAEAV?$basic_ostream@DU?$char_traits@D@std@@@0@AEAV10@@Z
pdata	ENDS
;	COMDAT pdata
pdata	SEGMENT
$pdata$??0_Sentry_base@?$basic_ostream@DU?$char_traits@D@std@@@std@@QEAA@AEAV12@@Z DD imagerel $LN4
	DD	imagerel $LN4+148
	DD	imagerel $unwind$??0_Sentry_base@?$basic_ostream@DU?$char_traits@D@std@@@std@@QEAA@AEAV12@@Z
pdata	ENDS
;	COMDAT pdata
pdata	SEGMENT
$pdata$??1_Sentry_base@?$basic_ostream@DU?$char_traits@D@std@@@std@@QEAA@XZ DD imagerel $LN4
	DD	imagerel $LN4+120
	DD	imagerel $unwind$??1_Sentry_base@?$basic_ostream@DU?$char_traits@D@std@@@std@@QEAA@XZ
pdata	ENDS
;	COMDAT pdata
pdata	SEGMENT
$pdata$??0sentry@?$basic_ostream@DU?$char_traits@D@std@@@std@@QEAA@AEAV12@@Z DD imagerel $LN7
	DD	imagerel $LN7+261
	DD	imagerel $unwind$??0sentry@?$basic_ostream@DU?$char_traits@D@std@@@std@@QEAA@AEAV12@@Z
pdata	ENDS
;	COMDAT pdata
pdata	SEGMENT
$pdata$?dtor$0@?0???0sentry@?$basic_ostream@DU?$char_traits@D@std@@@std@@QEAA@AEAV12@@Z@4HA DD imagerel ?dtor$0@?0???0sentry@?$basic_ostream@DU?$char_traits@D@std@@@std@@QEAA@AEAV12@@Z@4HA
	DD	imagerel ?dtor$0@?0???0sentry@?$basic_ostream@DU?$char_traits@D@std@@@std@@QEAA@AEAV12@@Z@4HA+39
	DD	imagerel $unwind$?dtor$0@?0???0sentry@?$basic_ostream@DU?$char_traits@D@std@@@std@@QEAA@AEAV12@@Z@4HA
pdata	ENDS
;	COMDAT pdata
pdata	SEGMENT
$pdata$??1sentry@?$basic_ostream@DU?$char_traits@D@std@@@std@@QEAA@XZ DD imagerel $LN6
	DD	imagerel $LN6+115
	DD	imagerel $unwind$??1sentry@?$basic_ostream@DU?$char_traits@D@std@@@std@@QEAA@XZ
pdata	ENDS
;	COMDAT pdata
pdata	SEGMENT
$pdata$??Bsentry@?$basic_ostream@DU?$char_traits@D@std@@@std@@QEBA_NXZ DD imagerel $LN3
	DD	imagerel $LN3+52
	DD	imagerel $unwind$??Bsentry@?$basic_ostream@DU?$char_traits@D@std@@@std@@QEBA_NXZ
pdata	ENDS
;	COMDAT rtc$TMZ
rtc$TMZ	SEGMENT
_RTC_Shutdown.rtc$TMZ DQ FLAT:_RTC_Shutdown
rtc$TMZ	ENDS
;	COMDAT rtc$IMZ
rtc$IMZ	SEGMENT
_RTC_InitBase.rtc$IMZ DQ FLAT:_RTC_InitBase
rtc$IMZ	ENDS
;	COMDAT ??_C@_09LJIHIGEJ@?N?q?r?$OA?k?n?q?$PM?5@
CONST	SEGMENT
??_C@_09LJIHIGEJ@?N?q?r?$OA?k?n?q?$PM?5@ DB 0ceH, 0f1H, 0f2H, 0e0H, 0ebH, 0eeH
	DB	0f1H, 0fcH, ' ', 00H				; `string'
CONST	ENDS
;	COMDAT ??_C@_0BD@OECKIDLN@?5?d?m?e?i?5?d?n?59?5?m?n?$PP?a?p?$PP?4@
CONST	SEGMENT
??_C@_0BD@OECKIDLN@?5?d?m?e?i?5?d?n?59?5?m?n?$PP?a?p?$PP?4@ DB ' ', 0e4H, 0edH
	DB	0e5H, 0e9H, ' ', 0e4H, 0eeH, ' 9 ', 0edH, 0eeH, 0ffH, 0e1H, 0f0H
	DB	0ffH, '.', 00H				; `string'
CONST	ENDS
;	COMDAT ??_C@_0BI@LBHFLDPH@?O?n?p?$PP?d?j?n?b?$PL?i?5?m?n?l?e?p?5?d?m?$PP?5?b?5@
CONST	SEGMENT
??_C@_0BI@LBHFLDPH@?O?n?p?$PP?d?j?n?b?$PL?i?5?m?n?l?e?p?5?d?m?$PP?5?b?5@ DB 0cfH
	DB	0eeH, 0f0H, 0ffH, 0e4H, 0eaH, 0eeH, 0e2H, 0fbH, 0e9H, ' ', 0edH
	DB	0eeH, 0ecH, 0e5H, 0f0H, ' ', 0e4H, 0edH, 0ffH, ' ', 0e2H, ' ', 00H ; `string'
CONST	ENDS
;	COMDAT ??_C@_07IIFCBIAK@?5?c?n?d?s?3?5@
CONST	SEGMENT
??_C@_07IIFCBIAK@?5?c?n?d?s?3?5@ DB ' ', 0e3H, 0eeH, 0e4H, 0f3H, ': ', 00H ; `string'
CONST	ENDS
;	COMDAT ??_C@_0CD@BCOCLHI@?5?c?n?d?5?m?e?5?$PP?b?k?$PP?e?r?q?$PP?5?b?h?q?n?j?n?q?m?$PL?l?5?c?n?d@
CONST	SEGMENT
??_C@_0CD@BCOCLHI@?5?c?n?d?5?m?e?5?$PP?b?k?$PP?e?r?q?$PP?5?b?h?q?n?j?n?q?m?$PL?l?5?c?n?d@ DB ' '
	DB	0e3H, 0eeH, 0e4H, ' ', 0edH, 0e5H, ' ', 0ffH, 0e2H, 0ebH, 0ffH
	DB	0e5H, 0f2H, 0f1H, 0ffH, ' ', 0e2H, 0e8H, 0f1H, 0eeH, 0eaH, 0eeH
	DB	0f1H, 0edH, 0fbH, 0ecH, ' ', 0e3H, 0eeH, 0e4H, 0eeH, 0ecH, '.', 00H ; `string'
CONST	ENDS
;	COMDAT ??_C@_0CA@BIFHHEDL@?5?c?n?d?5?$PP?b?k?$PP?e?r?q?$PP?5?b?h?q?n?j?n?q?m?$PL?l?5?c?n?d?n?l?4@
CONST	SEGMENT
??_C@_0CA@BIFHHEDL@?5?c?n?d?5?$PP?b?k?$PP?e?r?q?$PP?5?b?h?q?n?j?n?q?m?$PL?l?5?c?n?d?n?l?4@ DB ' '
	DB	0e3H, 0eeH, 0e4H, ' ', 0ffH, 0e2H, 0ebH, 0ffH, 0e5H, 0f2H, 0f1H
	DB	0ffH, ' ', 0e2H, 0e8H, 0f1H, 0eeH, 0eaH, 0eeH, 0f1H, 0edH, 0fbH
	DB	0ecH, ' ', 0e3H, 0eeH, 0e4H, 0eeH, 0ecH, '.', 00H ; `string'
CONST	ENDS
;	COMDAT ??_C@_04CCHLMOGN@fail@
CONST	SEGMENT
??_C@_04CCHLMOGN@fail@ DB 'fail', 00H			; `string'
CONST	ENDS
;	COMDAT ??_C@_03LCPHGAHP@cls@
CONST	SEGMENT
??_C@_03LCPHGAHP@cls@ DB 'cls', 00H			; `string'
CONST	ENDS
;	COMDAT ??_C@_0O@POBGICEA@?B?b?e?d?h?r?e?5?c?n?d?3?5@
CONST	SEGMENT
??_C@_0O@POBGICEA@?B?b?e?d?h?r?e?5?c?n?d?3?5@ DB 0c2H, 0e2H, 0e5H, 0e4H, 0e8H
	DB	0f2H, 0e5H, ' ', 0e3H, 0eeH, 0e4H, ': ', 00H	; `string'
CONST	ENDS
;	COMDAT ??_C@_0BA@OFEBEDGL@?B?b?e?d?h?r?e?5?l?e?q?$PP?v?3?5@
CONST	SEGMENT
??_C@_0BA@OFEBEDGL@?B?b?e?d?h?r?e?5?l?e?q?$PP?v?3?5@ DB 0c2H, 0e2H, 0e5H, 0e4H
	DB	0e8H, 0f2H, 0e5H, ' ', 0ecH, 0e5H, 0f1H, 0ffH, 0f6H, ': ', 00H ; `string'
CONST	ENDS
;	COMDAT ??_C@_0P@DEBEIPA@?B?b?e?d?h?r?e?5?d?e?m?$PM?3?5@
CONST	SEGMENT
??_C@_0P@DEBEIPA@?B?b?e?d?h?r?e?5?d?e?m?$PM?3?5@ DB 0c2H, 0e2H, 0e5H, 0e4H
	DB	0e8H, 0f2H, 0e5H, ' ', 0e4H, 0e5H, 0edH, 0fcH, ': ', 00H ; `string'
CONST	ENDS
;	COMDAT ??_C@_02FIDBHGA@ru@
CONST	SEGMENT
??_C@_02FIDBHGA@ru@ DB 'ru', 00H			; `string'
CONST	ENDS
;	COMDAT xdata
xdata	SEGMENT
$unwind$??Bsentry@?$basic_ostream@DU?$char_traits@D@std@@@std@@QEBA_NXZ DD 025051301H
	DD	010e2313H
	DD	07007001dH
	DD	05006H
xdata	ENDS
;	COMDAT xdata
xdata	SEGMENT
$unwind$??1sentry@?$basic_ostream@DU?$char_traits@D@std@@@std@@QEAA@XZ DD 025051301H
	DD	010e2313H
	DD	070070021H
	DD	05006H
xdata	ENDS
;	COMDAT voltbl
voltbl	SEGMENT
_volmd	DB	00H
	DB	05H
voltbl	ENDS
;	COMDAT xdata
xdata	SEGMENT
$unwind$?dtor$0@?0???0sentry@?$basic_ostream@DU?$char_traits@D@std@@@std@@QEAA@AEAV12@@Z@4HA DD 031001H
	DD	0700c4210H
	DD	0500bH
xdata	ENDS
;	COMDAT xdata
xdata	SEGMENT
$ip2state$??0sentry@?$basic_ostream@DU?$char_traits@D@std@@@std@@QEAA@AEAV12@@Z DB 06H
	DB	00H
	DB	00H
	DB	'p'
	DB	02H
	DB	0f1H, 02H
	DB	00H
xdata	ENDS
;	COMDAT xdata
xdata	SEGMENT
$stateUnwindMap$??0sentry@?$basic_ostream@DU?$char_traits@D@std@@@std@@QEAA@AEAV12@@Z DB 02H
	DB	0eH
	DD	imagerel ?dtor$0@?0???0sentry@?$basic_ostream@DU?$char_traits@D@std@@@std@@QEAA@AEAV12@@Z@4HA
xdata	ENDS
;	COMDAT xdata
xdata	SEGMENT
$cppxdata$??0sentry@?$basic_ostream@DU?$char_traits@D@std@@@std@@QEAA@AEAV12@@Z DB 028H
	DD	imagerel $stateUnwindMap$??0sentry@?$basic_ostream@DU?$char_traits@D@std@@@std@@QEAA@AEAV12@@Z
	DD	imagerel $ip2state$??0sentry@?$basic_ostream@DU?$char_traits@D@std@@@std@@QEAA@AEAV12@@Z
xdata	ENDS
;	COMDAT xdata
xdata	SEGMENT
$unwind$??0sentry@?$basic_ostream@DU?$char_traits@D@std@@@std@@QEAA@AEAV12@@Z DD 025051811H
	DD	01132318H
	DD	0700c0021H
	DD	0500bH
	DD	imagerel __CxxFrameHandler4
	DD	imagerel $cppxdata$??0sentry@?$basic_ostream@DU?$char_traits@D@std@@@std@@QEAA@AEAV12@@Z
xdata	ENDS
;	COMDAT xdata
xdata	SEGMENT
$ip2state$??1_Sentry_base@?$basic_ostream@DU?$char_traits@D@std@@@std@@QEAA@XZ DB 02H
	DB	00H
	DB	00H
xdata	ENDS
;	COMDAT xdata
xdata	SEGMENT
$cppxdata$??1_Sentry_base@?$basic_ostream@DU?$char_traits@D@std@@@std@@QEAA@XZ DB 060H
	DD	imagerel $ip2state$??1_Sentry_base@?$basic_ostream@DU?$char_traits@D@std@@@std@@QEAA@XZ
xdata	ENDS
;	COMDAT xdata
xdata	SEGMENT
$unwind$??1_Sentry_base@?$basic_ostream@DU?$char_traits@D@std@@@std@@QEAA@XZ DD 025051319H
	DD	010e2313H
	DD	070070021H
	DD	05006H
	DD	imagerel __CxxFrameHandler4
	DD	imagerel $cppxdata$??1_Sentry_base@?$basic_ostream@DU?$char_traits@D@std@@@std@@QEAA@XZ
xdata	ENDS
;	COMDAT xdata
xdata	SEGMENT
$unwind$??0_Sentry_base@?$basic_ostream@DU?$char_traits@D@std@@@std@@QEAA@AEAV12@@Z DD 025051801H
	DD	01132318H
	DD	0700c0021H
	DD	0500bH
xdata	ENDS
;	COMDAT xdata
xdata	SEGMENT
$unwind$??$endl@DU?$char_traits@D@std@@@std@@YAAEAV?$basic_ostream@DU?$char_traits@D@std@@@0@AEAV10@@Z DD 025051301H
	DD	010e2313H
	DD	07007001dH
	DD	05006H
xdata	ENDS
;	COMDAT voltbl
voltbl	SEGMENT
_volmd	DB	00H
	DB	05H
voltbl	ENDS
;	COMDAT voltbl
voltbl	SEGMENT
_volmd	DB	00H
	DB	05H
voltbl	ENDS
;	COMDAT voltbl
voltbl	SEGMENT
_volmd	DW	03aH
	DW	035dH
voltbl	ENDS
;	COMDAT xdata
xdata	SEGMENT
$unwind$?catch$1@?0???$?6U?$char_traits@D@std@@@std@@YAAEAV?$basic_ostream@DU?$char_traits@D@std@@@0@AEAV10@D@Z@4HA DD 031001H
	DD	0700c4210H
	DD	0500bH
xdata	ENDS
;	COMDAT xdata
xdata	SEGMENT
$unwind$?dtor$0@?0???$?6U?$char_traits@D@std@@@std@@YAAEAV?$basic_ostream@DU?$char_traits@D@std@@@0@AEAV10@D@Z@4HA DD 031001H
	DD	0700c4210H
	DD	0500bH
xdata	ENDS
;	COMDAT xdata
xdata	SEGMENT
$ip2state$??$?6U?$char_traits@D@std@@@std@@YAAEAV?$basic_ostream@DU?$char_traits@D@std@@@0@AEAV10@D@Z DB 0aH
	DB	00H
	DB	00H
	DB	0caH
	DB	02H
	DB	011H, 02H
	DB	04H
	DB	0b9H, 07H
	DB	02H
	DB	0c0H
	DB	00H
xdata	ENDS
;	COMDAT xdata
xdata	SEGMENT
$handlerMap$??$?6U?$char_traits@D@std@@@std@@YAAEAV?$basic_ostream@DU?$char_traits@D@std@@@0@AEAV10@D@Z DB 02H
	DB	01H
	DB	080H
	DD	imagerel ?catch$1@?0???$?6U?$char_traits@D@std@@@std@@YAAEAV?$basic_ostream@DU?$char_traits@D@std@@@0@AEAV10@D@Z@4HA
xdata	ENDS
;	COMDAT xdata
xdata	SEGMENT
$tryMap$??$?6U?$char_traits@D@std@@@std@@YAAEAV?$basic_ostream@DU?$char_traits@D@std@@@0@AEAV10@D@Z DB 02H
	DB	02H
	DB	02H
	DB	04H
	DD	imagerel $handlerMap$??$?6U?$char_traits@D@std@@@std@@YAAEAV?$basic_ostream@DU?$char_traits@D@std@@@0@AEAV10@D@Z
xdata	ENDS
;	COMDAT xdata
xdata	SEGMENT
$stateUnwindMap$??$?6U?$char_traits@D@std@@@std@@YAAEAV?$basic_ostream@DU?$char_traits@D@std@@@0@AEAV10@D@Z DB 06H
	DB	0eH
	DD	imagerel ?dtor$0@?0???$?6U?$char_traits@D@std@@@std@@YAAEAV?$basic_ostream@DU?$char_traits@D@std@@@0@AEAV10@D@Z@4HA
	DB	028H
	DB	030H
xdata	ENDS
;	COMDAT xdata
xdata	SEGMENT
$cppxdata$??$?6U?$char_traits@D@std@@@std@@YAAEAV?$basic_ostream@DU?$char_traits@D@std@@@0@AEAV10@D@Z DB 038H
	DD	imagerel $stateUnwindMap$??$?6U?$char_traits@D@std@@@std@@YAAEAV?$basic_ostream@DU?$char_traits@D@std@@@0@AEAV10@D@Z
	DD	imagerel $tryMap$??$?6U?$char_traits@D@std@@@std@@YAAEAV?$basic_ostream@DU?$char_traits@D@std@@@0@AEAV10@D@Z
	DD	imagerel $ip2state$??$?6U?$char_traits@D@std@@@std@@YAAEAV?$basic_ostream@DU?$char_traits@D@std@@@0@AEAV10@D@Z
xdata	ENDS
;	COMDAT xdata
xdata	SEGMENT
$unwind$??$?6U?$char_traits@D@std@@@std@@YAAEAV?$basic_ostream@DU?$char_traits@D@std@@@0@AEAV10@D@Z DD 025054119H
	DD	01122317H
	DD	0700b0031H
	DD	0500aH
	DD	imagerel __GSHandlerCheck_EH4
	DD	imagerel $cppxdata$??$?6U?$char_traits@D@std@@@std@@YAAEAV?$basic_ostream@DU?$char_traits@D@std@@@0@AEAV10@D@Z
	DD	0173H
xdata	ENDS
;	COMDAT CONST
CONST	SEGMENT
??$?6U?$char_traits@D@std@@@std@@YAAEAV?$basic_ostream@DU?$char_traits@D@std@@@0@AEAV10@D@Z$rtcName$0 DB 05fH ; std::operator<<<std::char_traits<char> >
	DB	04fH
	DB	06bH
	DB	00H
	ORG $+12
??$?6U?$char_traits@D@std@@@std@@YAAEAV?$basic_ostream@DU?$char_traits@D@std@@@0@AEAV10@D@Z$rtcVarDesc DD 048H ; std::operator<<<std::char_traits<char> >
	DD	010H
	DQ	FLAT:??$?6U?$char_traits@D@std@@@std@@YAAEAV?$basic_ostream@DU?$char_traits@D@std@@@0@AEAV10@D@Z$rtcName$0
	ORG $+48
??$?6U?$char_traits@D@std@@@std@@YAAEAV?$basic_ostream@DU?$char_traits@D@std@@@0@AEAV10@D@Z$rtcFrameData DD 01H ; std::operator<<<std::char_traits<char> >
	DD	00H
	DQ	FLAT:??$?6U?$char_traits@D@std@@@std@@YAAEAV?$basic_ostream@DU?$char_traits@D@std@@@0@AEAV10@D@Z$rtcVarDesc
CONST	ENDS
;	COMDAT voltbl
voltbl	SEGMENT
_volmd	DB	00H
	DB	05H
voltbl	ENDS
;	COMDAT voltbl
voltbl	SEGMENT
_volmd	DB	00H
	DB	05H
voltbl	ENDS
;	COMDAT voltbl
voltbl	SEGMENT
_volmd	DW	03bH
	DW	0396H
voltbl	ENDS
;	COMDAT xdata
xdata	SEGMENT
$unwind$?catch$1@?0???$?6U?$char_traits@D@std@@@std@@YAAEAV?$basic_ostream@DU?$char_traits@D@std@@@0@AEAV10@PEBD@Z@4HA DD 031001H
	DD	0700c4210H
	DD	0500bH
xdata	ENDS
;	COMDAT xdata
xdata	SEGMENT
$unwind$?dtor$0@?0???$?6U?$char_traits@D@std@@@std@@YAAEAV?$basic_ostream@DU?$char_traits@D@std@@@0@AEAV10@PEBD@Z@4HA DD 031001H
	DD	0700c4210H
	DD	0500bH
xdata	ENDS
;	COMDAT xdata
xdata	SEGMENT
$ip2state$??$?6U?$char_traits@D@std@@@std@@YAAEAV?$basic_ostream@DU?$char_traits@D@std@@@0@AEAV10@PEBD@Z DB 0aH
	DB	00H
	DB	00H
	DB	'A', 04H
	DB	02H
	DB	'<'
	DB	04H
	DB	'!', 08H
	DB	02H
	DB	't'
	DB	00H
xdata	ENDS
;	COMDAT xdata
xdata	SEGMENT
$handlerMap$??$?6U?$char_traits@D@std@@@std@@YAAEAV?$basic_ostream@DU?$char_traits@D@std@@@0@AEAV10@PEBD@Z DB 02H
	DB	01H
	DB	080H
	DD	imagerel ?catch$1@?0???$?6U?$char_traits@D@std@@@std@@YAAEAV?$basic_ostream@DU?$char_traits@D@std@@@0@AEAV10@PEBD@Z@4HA
xdata	ENDS
;	COMDAT xdata
xdata	SEGMENT
$tryMap$??$?6U?$char_traits@D@std@@@std@@YAAEAV?$basic_ostream@DU?$char_traits@D@std@@@0@AEAV10@PEBD@Z DB 02H
	DB	02H
	DB	02H
	DB	04H
	DD	imagerel $handlerMap$??$?6U?$char_traits@D@std@@@std@@YAAEAV?$basic_ostream@DU?$char_traits@D@std@@@0@AEAV10@PEBD@Z
xdata	ENDS
;	COMDAT xdata
xdata	SEGMENT
$stateUnwindMap$??$?6U?$char_traits@D@std@@@std@@YAAEAV?$basic_ostream@DU?$char_traits@D@std@@@0@AEAV10@PEBD@Z DB 06H
	DB	0eH
	DD	imagerel ?dtor$0@?0???$?6U?$char_traits@D@std@@@std@@YAAEAV?$basic_ostream@DU?$char_traits@D@std@@@0@AEAV10@PEBD@Z@4HA
	DB	028H
	DB	030H
xdata	ENDS
;	COMDAT xdata
xdata	SEGMENT
$cppxdata$??$?6U?$char_traits@D@std@@@std@@YAAEAV?$basic_ostream@DU?$char_traits@D@std@@@0@AEAV10@PEBD@Z DB 038H
	DD	imagerel $stateUnwindMap$??$?6U?$char_traits@D@std@@@std@@YAAEAV?$basic_ostream@DU?$char_traits@D@std@@@0@AEAV10@PEBD@Z
	DD	imagerel $tryMap$??$?6U?$char_traits@D@std@@@std@@YAAEAV?$basic_ostream@DU?$char_traits@D@std@@@0@AEAV10@PEBD@Z
	DD	imagerel $ip2state$??$?6U?$char_traits@D@std@@@std@@YAAEAV?$basic_ostream@DU?$char_traits@D@std@@@0@AEAV10@PEBD@Z
xdata	ENDS
;	COMDAT xdata
xdata	SEGMENT
$unwind$??$?6U?$char_traits@D@std@@@std@@YAAEAV?$basic_ostream@DU?$char_traits@D@std@@@0@AEAV10@PEBD@Z DD 025054219H
	DD	01132318H
	DD	0700c0035H
	DD	0500bH
	DD	imagerel __GSHandlerCheck_EH4
	DD	imagerel $cppxdata$??$?6U?$char_traits@D@std@@@std@@YAAEAV?$basic_ostream@DU?$char_traits@D@std@@@0@AEAV10@PEBD@Z
	DD	0193H
xdata	ENDS
;	COMDAT CONST
CONST	SEGMENT
??$?6U?$char_traits@D@std@@@std@@YAAEAV?$basic_ostream@DU?$char_traits@D@std@@@0@AEAV10@PEBD@Z$rtcName$0 DB 05fH ; std::operator<<<std::char_traits<char> >
	DB	04fH
	DB	06bH
	DB	00H
	ORG $+12
??$?6U?$char_traits@D@std@@@std@@YAAEAV?$basic_ostream@DU?$char_traits@D@std@@@0@AEAV10@PEBD@Z$rtcVarDesc DD 088H ; std::operator<<<std::char_traits<char> >
	DD	010H
	DQ	FLAT:??$?6U?$char_traits@D@std@@@std@@YAAEAV?$basic_ostream@DU?$char_traits@D@std@@@0@AEAV10@PEBD@Z$rtcName$0
	ORG $+48
??$?6U?$char_traits@D@std@@@std@@YAAEAV?$basic_ostream@DU?$char_traits@D@std@@@0@AEAV10@PEBD@Z$rtcFrameData DD 01H ; std::operator<<<std::char_traits<char> >
	DD	00H
	DQ	FLAT:??$?6U?$char_traits@D@std@@@std@@YAAEAV?$basic_ostream@DU?$char_traits@D@std@@@0@AEAV10@PEBD@Z$rtcVarDesc
CONST	ENDS
;	COMDAT voltbl
voltbl	SEGMENT
_volmd	DW	02aH
	DW	039fH
voltbl	ENDS
;	COMDAT xdata
xdata	SEGMENT
$unwind$main DD	025053119H
	DD	010a230fH
	DD	070030037H
	DD	05002H
	DD	imagerel __GSHandlerCheck
	DD	01a0H
xdata	ENDS
;	COMDAT CONST
CONST	SEGMENT
main$rtcName$0 DB 064H
	DB	061H
	DB	079H
	DB	00H
main$rtcName$1 DB 06dH
	DB	06fH
	DB	06eH
	DB	074H
	DB	068H
	DB	00H
	ORG $+2
main$rtcName$2 DB 079H
	DB	065H
	DB	061H
	DB	072H
	DB	00H
	ORG $+15
main$rtcVarDesc DD 064H
	DD	04H
	DQ	FLAT:main$rtcName$2
	DD	044H
	DD	04H
	DQ	FLAT:main$rtcName$1
	DD	024H
	DD	04H
	DQ	FLAT:main$rtcName$0
	ORG $+144
main$rtcFrameData DD 03H
	DD	00H
	DQ	FLAT:main$rtcVarDesc
CONST	ENDS
;	COMDAT xdata
xdata	SEGMENT
$unwind$?eof@?$_Narrow_char_traits@DH@std@@SAHXZ DD 025050f01H
	DD	010a230fH
	DD	07003001dH
	DD	05002H
xdata	ENDS
;	COMDAT xdata
xdata	SEGMENT
$unwind$?eq_int_type@?$_Narrow_char_traits@DH@std@@SA_NHH@Z DD 025051601H
	DD	01112316H
	DD	0700a001fH
	DD	05009H
xdata	ENDS
;	COMDAT xdata
xdata	SEGMENT
$unwind$?length@?$_Narrow_char_traits@DH@std@@SA_KQEBD@Z DD 025051301H
	DD	010e2313H
	DD	07007001dH
	DD	05006H
xdata	ENDS
;	COMDAT xdata
xdata	SEGMENT
$unwind$?__empty_global_delete@@YAXPEAX_K@Z DD 025051801H
	DD	01132318H
	DD	0700c001dH
	DD	0500bH
xdata	ENDS
;	COMDAT xdata
xdata	SEGMENT
$unwind$?__empty_global_delete@@YAXPEAX@Z DD 025051301H
	DD	010e2313H
	DD	07007001dH
	DD	05006H
xdata	ENDS
; Function compile flags: /Odt
;	COMDAT __JustMyCode_Default
_TEXT	SEGMENT
__JustMyCode_Default PROC				; COMDAT
  00000	c2 00 00	 ret	 0
__JustMyCode_Default ENDP
_TEXT	ENDS
; Function compile flags: /Odtp /RTCsu /ZI
; File D:\Visual Studio\2022\Community\VC\Tools\MSVC\14.38.33130\include\ostream
;	COMDAT ??Bsentry@?$basic_ostream@DU?$char_traits@D@std@@@std@@QEBA_NXZ
_TEXT	SEGMENT
this$ = 224
??Bsentry@?$basic_ostream@DU?$char_traits@D@std@@@std@@QEBA_NXZ PROC ; std::basic_ostream<char,std::char_traits<char> >::sentry::operator bool, COMDAT

; 128  :         explicit __CLR_OR_THIS_CALL operator bool() const {

$LN3:
  00000	48 89 4c 24 08	 mov	 QWORD PTR [rsp+8], rcx
  00005	55		 push	 rbp
  00006	57		 push	 rdi
  00007	48 81 ec e8 00
	00 00		 sub	 rsp, 232		; 000000e8H
  0000e	48 8d 6c 24 20	 lea	 rbp, QWORD PTR [rsp+32]
  00013	48 8d 0d 00 00
	00 00		 lea	 rcx, OFFSET FLAT:__0D025353_ostream
  0001a	e8 00 00 00 00	 call	 __CheckForDebuggerJustMyCode

; 129  :             return _Ok;

  0001f	48 8b 85 e0 00
	00 00		 mov	 rax, QWORD PTR this$[rbp]
  00026	0f b6 40 08	 movzx	 eax, BYTE PTR [rax+8]

; 130  :         }

  0002a	48 8d a5 c8 00
	00 00		 lea	 rsp, QWORD PTR [rbp+200]
  00031	5f		 pop	 rdi
  00032	5d		 pop	 rbp
  00033	c3		 ret	 0
??Bsentry@?$basic_ostream@DU?$char_traits@D@std@@@std@@QEBA_NXZ ENDP ; std::basic_ostream<char,std::char_traits<char> >::sentry::operator bool
_TEXT	ENDS
; Function compile flags: /Odtp /RTCsu /ZI
; File D:\Visual Studio\2022\Community\VC\Tools\MSVC\14.38.33130\include\ostream
;	COMDAT ??1sentry@?$basic_ostream@DU?$char_traits@D@std@@@std@@QEAA@XZ
_TEXT	SEGMENT
_Zero_uncaught_exceptions$ = 4
tv72 = 212
this$ = 256
??1sentry@?$basic_ostream@DU?$char_traits@D@std@@@std@@QEAA@XZ PROC ; std::basic_ostream<char,std::char_traits<char> >::sentry::~sentry, COMDAT

; 113  :         __CLR_OR_THIS_CALL ~sentry() noexcept {

$LN6:
  00000	48 89 4c 24 08	 mov	 QWORD PTR [rsp+8], rcx
  00005	55		 push	 rbp
  00006	57		 push	 rdi
  00007	48 81 ec 08 01
	00 00		 sub	 rsp, 264		; 00000108H
  0000e	48 8d 6c 24 20	 lea	 rbp, QWORD PTR [rsp+32]
  00013	48 8d 0d 00 00
	00 00		 lea	 rcx, OFFSET FLAT:__0D025353_ostream
  0001a	e8 00 00 00 00	 call	 __CheckForDebuggerJustMyCode

; 114  : #if !_HAS_EXCEPTIONS
; 115  :             const bool _Zero_uncaught_exceptions = true;
; 116  : #elif _HAS_DEPRECATED_UNCAUGHT_EXCEPTION
; 117  :             const bool _Zero_uncaught_exceptions = !_STD uncaught_exception(); // TRANSITION, ArchivedOS-12000909

  0001f	e8 00 00 00 00	 call	 ?uncaught_exception@std@@YA_NXZ ; std::uncaught_exception
  00024	0f b6 c0	 movzx	 eax, al
  00027	85 c0		 test	 eax, eax
  00029	75 09		 jne	 SHORT $LN4@sentry
  0002b	c6 85 d4 00 00
	00 01		 mov	 BYTE PTR tv72[rbp], 1
  00032	eb 07		 jmp	 SHORT $LN5@sentry
$LN4@sentry:
  00034	c6 85 d4 00 00
	00 00		 mov	 BYTE PTR tv72[rbp], 0
$LN5@sentry:
  0003b	0f b6 85 d4 00
	00 00		 movzx	 eax, BYTE PTR tv72[rbp]
  00042	88 45 04	 mov	 BYTE PTR _Zero_uncaught_exceptions$[rbp], al

; 118  : #else // ^^^ _HAS_DEPRECATED_UNCAUGHT_EXCEPTION / !_HAS_DEPRECATED_UNCAUGHT_EXCEPTION vvv
; 119  :             const bool _Zero_uncaught_exceptions = _STD uncaught_exceptions() == 0;
; 120  : #endif // !_HAS_DEPRECATED_UNCAUGHT_EXCEPTION
; 121  : 
; 122  :             if (_Zero_uncaught_exceptions) {

  00045	0f b6 45 04	 movzx	 eax, BYTE PTR _Zero_uncaught_exceptions$[rbp]
  00049	85 c0		 test	 eax, eax
  0004b	74 10		 je	 SHORT $LN2@sentry

; 123  :                 this->_Myostr._Osfx();

  0004d	48 8b 85 00 01
	00 00		 mov	 rax, QWORD PTR this$[rbp]
  00054	48 8b 08	 mov	 rcx, QWORD PTR [rax]
  00057	ff 15 00 00 00
	00		 call	 QWORD PTR __imp_?_Osfx@?$basic_ostream@DU?$char_traits@D@std@@@std@@QEAAXXZ
$LN2@sentry:

; 124  :             }
; 125  :         }

  0005d	48 8b 8d 00 01
	00 00		 mov	 rcx, QWORD PTR this$[rbp]
  00064	e8 00 00 00 00	 call	 ??1_Sentry_base@?$basic_ostream@DU?$char_traits@D@std@@@std@@QEAA@XZ ; std::basic_ostream<char,std::char_traits<char> >::_Sentry_base::~_Sentry_base
  00069	48 8d a5 e8 00
	00 00		 lea	 rsp, QWORD PTR [rbp+232]
  00070	5f		 pop	 rdi
  00071	5d		 pop	 rbp
  00072	c3		 ret	 0
??1sentry@?$basic_ostream@DU?$char_traits@D@std@@@std@@QEAA@XZ ENDP ; std::basic_ostream<char,std::char_traits<char> >::sentry::~sentry
_TEXT	ENDS
; Function compile flags: /Odtp /RTCsu /ZI
; File D:\Visual Studio\2022\Community\VC\Tools\MSVC\14.38.33130\include\ostream
;	COMDAT ??0sentry@?$basic_ostream@DU?$char_traits@D@std@@@std@@QEAA@AEAV12@@Z
_TEXT	SEGMENT
_Tied$ = 8
this$ = 256
_Ostr$ = 264
??0sentry@?$basic_ostream@DU?$char_traits@D@std@@@std@@QEAA@AEAV12@@Z PROC ; std::basic_ostream<char,std::char_traits<char> >::sentry::sentry, COMDAT

; 96   :         explicit __CLR_OR_THIS_CALL sentry(basic_ostream& _Ostr) : _Sentry_base(_Ostr) {

$LN7:
  00000	48 89 54 24 10	 mov	 QWORD PTR [rsp+16], rdx
  00005	48 89 4c 24 08	 mov	 QWORD PTR [rsp+8], rcx
  0000a	55		 push	 rbp
  0000b	57		 push	 rdi
  0000c	48 81 ec 08 01
	00 00		 sub	 rsp, 264		; 00000108H
  00013	48 8d 6c 24 20	 lea	 rbp, QWORD PTR [rsp+32]
  00018	48 8d 0d 00 00
	00 00		 lea	 rcx, OFFSET FLAT:__0D025353_ostream
  0001f	e8 00 00 00 00	 call	 __CheckForDebuggerJustMyCode
  00024	48 8b 95 08 01
	00 00		 mov	 rdx, QWORD PTR _Ostr$[rbp]
  0002b	48 8b 8d 00 01
	00 00		 mov	 rcx, QWORD PTR this$[rbp]
  00032	e8 00 00 00 00	 call	 ??0_Sentry_base@?$basic_ostream@DU?$char_traits@D@std@@@std@@QEAA@AEAV12@@Z ; std::basic_ostream<char,std::char_traits<char> >::_Sentry_base::_Sentry_base
  00037	90		 npad	 1

; 97   :             if (!_Ostr.good()) {

  00038	48 8b 85 08 01
	00 00		 mov	 rax, QWORD PTR _Ostr$[rbp]
  0003f	48 8b 00	 mov	 rax, QWORD PTR [rax]
  00042	48 63 40 04	 movsxd	 rax, DWORD PTR [rax+4]
  00046	48 8b 8d 08 01
	00 00		 mov	 rcx, QWORD PTR _Ostr$[rbp]
  0004d	48 03 c8	 add	 rcx, rax
  00050	48 8b c1	 mov	 rax, rcx
  00053	48 8b c8	 mov	 rcx, rax
  00056	ff 15 00 00 00
	00		 call	 QWORD PTR __imp_?good@ios_base@std@@QEBA_NXZ
  0005c	0f b6 c0	 movzx	 eax, al
  0005f	85 c0		 test	 eax, eax
  00061	75 10		 jne	 SHORT $LN2@sentry

; 98   :                 _Ok = false;

  00063	48 8b 85 00 01
	00 00		 mov	 rax, QWORD PTR this$[rbp]
  0006a	c6 40 08 00	 mov	 BYTE PTR [rax+8], 0

; 99   :                 return;

  0006e	e9 81 00 00 00	 jmp	 $LN1@sentry
$LN2@sentry:

; 100  :             }
; 101  : 
; 102  :             const auto _Tied = _Ostr.tie();

  00073	48 8b 85 08 01
	00 00		 mov	 rax, QWORD PTR _Ostr$[rbp]
  0007a	48 8b 00	 mov	 rax, QWORD PTR [rax]
  0007d	48 63 40 04	 movsxd	 rax, DWORD PTR [rax+4]
  00081	48 8b 8d 08 01
	00 00		 mov	 rcx, QWORD PTR _Ostr$[rbp]
  00088	48 03 c8	 add	 rcx, rax
  0008b	48 8b c1	 mov	 rax, rcx
  0008e	48 8b c8	 mov	 rcx, rax
  00091	ff 15 00 00 00
	00		 call	 QWORD PTR __imp_?tie@?$basic_ios@DU?$char_traits@D@std@@@std@@QEBAPEAV?$basic_ostream@DU?$char_traits@D@std@@@2@XZ
  00097	48 89 45 08	 mov	 QWORD PTR _Tied$[rbp], rax

; 103  :             if (!_Tied || _Tied == &_Ostr) {

  0009b	48 83 7d 08 00	 cmp	 QWORD PTR _Tied$[rbp], 0
  000a0	74 0d		 je	 SHORT $LN4@sentry
  000a2	48 8b 85 08 01
	00 00		 mov	 rax, QWORD PTR _Ostr$[rbp]
  000a9	48 39 45 08	 cmp	 QWORD PTR _Tied$[rbp], rax
  000ad	75 0d		 jne	 SHORT $LN3@sentry
$LN4@sentry:

; 104  :                 _Ok = true;

  000af	48 8b 85 00 01
	00 00		 mov	 rax, QWORD PTR this$[rbp]
  000b6	c6 40 08 01	 mov	 BYTE PTR [rax+8], 1

; 105  :                 return;

  000ba	eb 38		 jmp	 SHORT $LN1@sentry
$LN3@sentry:

; 106  :             }
; 107  : 
; 108  :             _Tied->flush();

  000bc	48 8b 4d 08	 mov	 rcx, QWORD PTR _Tied$[rbp]
  000c0	ff 15 00 00 00
	00		 call	 QWORD PTR __imp_?flush@?$basic_ostream@DU?$char_traits@D@std@@@std@@QEAAAEAV12@XZ

; 109  :             _Ok = _Ostr.good(); // store test only after flushing tie

  000c6	48 8b 85 08 01
	00 00		 mov	 rax, QWORD PTR _Ostr$[rbp]
  000cd	48 8b 00	 mov	 rax, QWORD PTR [rax]
  000d0	48 63 40 04	 movsxd	 rax, DWORD PTR [rax+4]
  000d4	48 8b 8d 08 01
	00 00		 mov	 rcx, QWORD PTR _Ostr$[rbp]
  000db	48 03 c8	 add	 rcx, rax
  000de	48 8b c1	 mov	 rax, rcx
  000e1	48 8b c8	 mov	 rcx, rax
  000e4	ff 15 00 00 00
	00		 call	 QWORD PTR __imp_?good@ios_base@std@@QEBA_NXZ
  000ea	48 8b 8d 00 01
	00 00		 mov	 rcx, QWORD PTR this$[rbp]
  000f1	88 41 08	 mov	 BYTE PTR [rcx+8], al
$LN1@sentry:

; 110  :         }

  000f4	48 8b 85 00 01
	00 00		 mov	 rax, QWORD PTR this$[rbp]
  000fb	48 8d a5 e8 00
	00 00		 lea	 rsp, QWORD PTR [rbp+232]
  00102	5f		 pop	 rdi
  00103	5d		 pop	 rbp
  00104	c3		 ret	 0
??0sentry@?$basic_ostream@DU?$char_traits@D@std@@@std@@QEAA@AEAV12@@Z ENDP ; std::basic_ostream<char,std::char_traits<char> >::sentry::sentry
_TEXT	ENDS
; Function compile flags: /Odtp /RTCsu /ZI
;	COMDAT text$x
text$x	SEGMENT
_Tied$ = 8
this$ = 256
_Ostr$ = 264
?dtor$0@?0???0sentry@?$basic_ostream@DU?$char_traits@D@std@@@std@@QEAA@AEAV12@@Z@4HA PROC ; `std::basic_ostream<char,std::char_traits<char> >::sentry::sentry'::`1'::dtor$0
  00000	48 89 4c 24 08	 mov	 QWORD PTR [rsp+8], rcx
  00005	48 89 54 24 10	 mov	 QWORD PTR [rsp+16], rdx
  0000a	55		 push	 rbp
  0000b	57		 push	 rdi
  0000c	48 83 ec 28	 sub	 rsp, 40			; 00000028H
  00010	48 8d 6a 20	 lea	 rbp, QWORD PTR [rdx+32]
  00014	48 8b 8d 00 01
	00 00		 mov	 rcx, QWORD PTR this$[rbp]
  0001b	e8 00 00 00 00	 call	 ??1_Sentry_base@?$basic_ostream@DU?$char_traits@D@std@@@std@@QEAA@XZ ; std::basic_ostream<char,std::char_traits<char> >::_Sentry_base::~_Sentry_base
  00020	48 83 c4 28	 add	 rsp, 40			; 00000028H
  00024	5f		 pop	 rdi
  00025	5d		 pop	 rbp
  00026	c3		 ret	 0
?dtor$0@?0???0sentry@?$basic_ostream@DU?$char_traits@D@std@@@std@@QEAA@AEAV12@@Z@4HA ENDP ; `std::basic_ostream<char,std::char_traits<char> >::sentry::sentry'::`1'::dtor$0
text$x	ENDS
; Function compile flags: /Odtp /RTCsu /ZI
; File D:\Visual Studio\2022\Community\VC\Tools\MSVC\14.38.33130\include\ostream
;	COMDAT ??1_Sentry_base@?$basic_ostream@DU?$char_traits@D@std@@@std@@QEAA@XZ
_TEXT	SEGMENT
_Rdbuf$ = 8
tv72 = 216
this$ = 256
??1_Sentry_base@?$basic_ostream@DU?$char_traits@D@std@@@std@@QEAA@XZ PROC ; std::basic_ostream<char,std::char_traits<char> >::_Sentry_base::~_Sentry_base, COMDAT

; 82   :         __CLR_OR_THIS_CALL ~_Sentry_base() noexcept { // destroy after unlocking

$LN4:
  00000	48 89 4c 24 08	 mov	 QWORD PTR [rsp+8], rcx
  00005	55		 push	 rbp
  00006	57		 push	 rdi
  00007	48 81 ec 08 01
	00 00		 sub	 rsp, 264		; 00000108H
  0000e	48 8d 6c 24 20	 lea	 rbp, QWORD PTR [rsp+32]
  00013	48 8d 0d 00 00
	00 00		 lea	 rcx, OFFSET FLAT:__0D025353_ostream
  0001a	e8 00 00 00 00	 call	 __CheckForDebuggerJustMyCode

; 83   :             const auto _Rdbuf = _Myostr.rdbuf();

  0001f	48 8b 85 00 01
	00 00		 mov	 rax, QWORD PTR this$[rbp]
  00026	48 8b 00	 mov	 rax, QWORD PTR [rax]
  00029	48 89 85 d8 00
	00 00		 mov	 QWORD PTR tv72[rbp], rax
  00030	48 8b 85 d8 00
	00 00		 mov	 rax, QWORD PTR tv72[rbp]
  00037	48 8b 00	 mov	 rax, QWORD PTR [rax]
  0003a	48 63 40 04	 movsxd	 rax, DWORD PTR [rax+4]
  0003e	48 8b 8d d8 00
	00 00		 mov	 rcx, QWORD PTR tv72[rbp]
  00045	48 03 c8	 add	 rcx, rax
  00048	48 8b c1	 mov	 rax, rcx
  0004b	48 8b c8	 mov	 rcx, rax
  0004e	ff 15 00 00 00
	00		 call	 QWORD PTR __imp_?rdbuf@?$basic_ios@DU?$char_traits@D@std@@@std@@QEBAPEAV?$basic_streambuf@DU?$char_traits@D@std@@@2@XZ
  00054	48 89 45 08	 mov	 QWORD PTR _Rdbuf$[rbp], rax

; 84   :             if (_Rdbuf) {

  00058	48 83 7d 08 00	 cmp	 QWORD PTR _Rdbuf$[rbp], 0
  0005d	74 0f		 je	 SHORT $LN2@Sentry_bas

; 85   :                 _Rdbuf->_Unlock();

  0005f	48 8b 45 08	 mov	 rax, QWORD PTR _Rdbuf$[rbp]
  00063	48 8b 00	 mov	 rax, QWORD PTR [rax]
  00066	48 8b 4d 08	 mov	 rcx, QWORD PTR _Rdbuf$[rbp]
  0006a	ff 50 10	 call	 QWORD PTR [rax+16]
  0006d	90		 npad	 1
$LN2@Sentry_bas:

; 86   :             }
; 87   :         }

  0006e	48 8d a5 e8 00
	00 00		 lea	 rsp, QWORD PTR [rbp+232]
  00075	5f		 pop	 rdi
  00076	5d		 pop	 rbp
  00077	c3		 ret	 0
??1_Sentry_base@?$basic_ostream@DU?$char_traits@D@std@@@std@@QEAA@XZ ENDP ; std::basic_ostream<char,std::char_traits<char> >::_Sentry_base::~_Sentry_base
_TEXT	ENDS
; Function compile flags: /Odtp /RTCsu /ZI
; File D:\Visual Studio\2022\Community\VC\Tools\MSVC\14.38.33130\include\ostream
;	COMDAT ??0_Sentry_base@?$basic_ostream@DU?$char_traits@D@std@@@std@@QEAA@AEAV12@@Z
_TEXT	SEGMENT
_Rdbuf$ = 8
tv73 = 216
this$ = 256
_Ostr$ = 264
??0_Sentry_base@?$basic_ostream@DU?$char_traits@D@std@@@std@@QEAA@AEAV12@@Z PROC ; std::basic_ostream<char,std::char_traits<char> >::_Sentry_base::_Sentry_base, COMDAT

; 75   :         __CLR_OR_THIS_CALL _Sentry_base(basic_ostream& _Ostr) : _Myostr(_Ostr) { // lock the stream buffer, if there

$LN4:
  00000	48 89 54 24 10	 mov	 QWORD PTR [rsp+16], rdx
  00005	48 89 4c 24 08	 mov	 QWORD PTR [rsp+8], rcx
  0000a	55		 push	 rbp
  0000b	57		 push	 rdi
  0000c	48 81 ec 08 01
	00 00		 sub	 rsp, 264		; 00000108H
  00013	48 8d 6c 24 20	 lea	 rbp, QWORD PTR [rsp+32]
  00018	48 8d 0d 00 00
	00 00		 lea	 rcx, OFFSET FLAT:__0D025353_ostream
  0001f	e8 00 00 00 00	 call	 __CheckForDebuggerJustMyCode
  00024	48 8b 85 00 01
	00 00		 mov	 rax, QWORD PTR this$[rbp]
  0002b	48 8b 8d 08 01
	00 00		 mov	 rcx, QWORD PTR _Ostr$[rbp]
  00032	48 89 08	 mov	 QWORD PTR [rax], rcx

; 76   :             const auto _Rdbuf = _Myostr.rdbuf();

  00035	48 8b 85 00 01
	00 00		 mov	 rax, QWORD PTR this$[rbp]
  0003c	48 8b 00	 mov	 rax, QWORD PTR [rax]
  0003f	48 89 85 d8 00
	00 00		 mov	 QWORD PTR tv73[rbp], rax
  00046	48 8b 85 d8 00
	00 00		 mov	 rax, QWORD PTR tv73[rbp]
  0004d	48 8b 00	 mov	 rax, QWORD PTR [rax]
  00050	48 63 40 04	 movsxd	 rax, DWORD PTR [rax+4]
  00054	48 8b 8d d8 00
	00 00		 mov	 rcx, QWORD PTR tv73[rbp]
  0005b	48 03 c8	 add	 rcx, rax
  0005e	48 8b c1	 mov	 rax, rcx
  00061	48 8b c8	 mov	 rcx, rax
  00064	ff 15 00 00 00
	00		 call	 QWORD PTR __imp_?rdbuf@?$basic_ios@DU?$char_traits@D@std@@@std@@QEBAPEAV?$basic_streambuf@DU?$char_traits@D@std@@@2@XZ
  0006a	48 89 45 08	 mov	 QWORD PTR _Rdbuf$[rbp], rax

; 77   :             if (_Rdbuf) {

  0006e	48 83 7d 08 00	 cmp	 QWORD PTR _Rdbuf$[rbp], 0
  00073	74 0e		 je	 SHORT $LN2@Sentry_bas

; 78   :                 _Rdbuf->_Lock();

  00075	48 8b 45 08	 mov	 rax, QWORD PTR _Rdbuf$[rbp]
  00079	48 8b 00	 mov	 rax, QWORD PTR [rax]
  0007c	48 8b 4d 08	 mov	 rcx, QWORD PTR _Rdbuf$[rbp]
  00080	ff 50 08	 call	 QWORD PTR [rax+8]
$LN2@Sentry_bas:

; 79   :             }
; 80   :         }

  00083	48 8b 85 00 01
	00 00		 mov	 rax, QWORD PTR this$[rbp]
  0008a	48 8d a5 e8 00
	00 00		 lea	 rsp, QWORD PTR [rbp+232]
  00091	5f		 pop	 rdi
  00092	5d		 pop	 rbp
  00093	c3		 ret	 0
??0_Sentry_base@?$basic_ostream@DU?$char_traits@D@std@@@std@@QEAA@AEAV12@@Z ENDP ; std::basic_ostream<char,std::char_traits<char> >::_Sentry_base::_Sentry_base
_TEXT	ENDS
; Function compile flags: /Odtp /RTCsu /ZI
; File D:\Visual Studio\2022\Community\VC\Tools\MSVC\14.38.33130\include\ostream
;	COMDAT ??$endl@DU?$char_traits@D@std@@@std@@YAAEAV?$basic_ostream@DU?$char_traits@D@std@@@0@AEAV10@@Z
_TEXT	SEGMENT
_Ostr$ = 224
??$endl@DU?$char_traits@D@std@@@std@@YAAEAV?$basic_ostream@DU?$char_traits@D@std@@@0@AEAV10@@Z PROC ; std::endl<char,std::char_traits<char> >, COMDAT

; 1010 :     basic_ostream<_Elem, _Traits>& _Ostr) { // insert newline and flush stream

$LN3:
  00000	48 89 4c 24 08	 mov	 QWORD PTR [rsp+8], rcx
  00005	55		 push	 rbp
  00006	57		 push	 rdi
  00007	48 81 ec e8 00
	00 00		 sub	 rsp, 232		; 000000e8H
  0000e	48 8d 6c 24 20	 lea	 rbp, QWORD PTR [rsp+32]
  00013	48 8d 0d 00 00
	00 00		 lea	 rcx, OFFSET FLAT:__0D025353_ostream
  0001a	e8 00 00 00 00	 call	 __CheckForDebuggerJustMyCode

; 1011 :     _Ostr.put(_Ostr.widen('\n'));

  0001f	48 8b 85 e0 00
	00 00		 mov	 rax, QWORD PTR _Ostr$[rbp]
  00026	48 8b 00	 mov	 rax, QWORD PTR [rax]
  00029	48 63 40 04	 movsxd	 rax, DWORD PTR [rax+4]
  0002d	48 8b 8d e0 00
	00 00		 mov	 rcx, QWORD PTR _Ostr$[rbp]
  00034	48 03 c8	 add	 rcx, rax
  00037	48 8b c1	 mov	 rax, rcx
  0003a	b2 0a		 mov	 dl, 10
  0003c	48 8b c8	 mov	 rcx, rax
  0003f	ff 15 00 00 00
	00		 call	 QWORD PTR __imp_?widen@?$basic_ios@DU?$char_traits@D@std@@@std@@QEBADD@Z
  00045	0f b6 d0	 movzx	 edx, al
  00048	48 8b 8d e0 00
	00 00		 mov	 rcx, QWORD PTR _Ostr$[rbp]
  0004f	ff 15 00 00 00
	00		 call	 QWORD PTR __imp_?put@?$basic_ostream@DU?$char_traits@D@std@@@std@@QEAAAEAV12@D@Z

; 1012 :     _Ostr.flush();

  00055	48 8b 8d e0 00
	00 00		 mov	 rcx, QWORD PTR _Ostr$[rbp]
  0005c	ff 15 00 00 00
	00		 call	 QWORD PTR __imp_?flush@?$basic_ostream@DU?$char_traits@D@std@@@std@@QEAAAEAV12@XZ

; 1013 :     return _Ostr;

  00062	48 8b 85 e0 00
	00 00		 mov	 rax, QWORD PTR _Ostr$[rbp]

; 1014 : }

  00069	48 8d a5 c8 00
	00 00		 lea	 rsp, QWORD PTR [rbp+200]
  00070	5f		 pop	 rdi
  00071	5d		 pop	 rbp
  00072	c3		 ret	 0
??$endl@DU?$char_traits@D@std@@@std@@YAAEAV?$basic_ostream@DU?$char_traits@D@std@@@0@AEAV10@@Z ENDP ; std::endl<char,std::char_traits<char> >
_TEXT	ENDS
; Function compile flags: /Odtp /RTCsu /ZI
; File D:\Visual Studio\2022\Community\VC\Tools\MSVC\14.38.33130\include\ostream
;	COMDAT ??$?6U?$char_traits@D@std@@@std@@YAAEAV?$basic_ostream@DU?$char_traits@D@std@@@0@AEAV10@D@Z
_TEXT	SEGMENT
_State$ = 4
_Ok$ = 40
_Pad$4 = 88
$T5 = 312
tv284 = 324
tv274 = 324
tv271 = 324
tv285 = 328
tv130 = 328
tv65 = 328
__$ArrayPad$ = 336
_Ostr$ = 384
_Ch$ = 392
??$?6U?$char_traits@D@std@@@std@@YAAEAV?$basic_ostream@DU?$char_traits@D@std@@@0@AEAV10@D@Z PROC ; std::operator<<<std::char_traits<char> >, COMDAT

; 811  : basic_ostream<char, _Traits>& operator<<(basic_ostream<char, _Traits>& _Ostr, char _Ch) {

$LN23:
  00000	88 54 24 10	 mov	 BYTE PTR [rsp+16], dl
  00004	48 89 4c 24 08	 mov	 QWORD PTR [rsp+8], rcx
  00009	55		 push	 rbp
  0000a	57		 push	 rdi
  0000b	48 81 ec 88 01
	00 00		 sub	 rsp, 392		; 00000188H
  00012	48 8d 6c 24 20	 lea	 rbp, QWORD PTR [rsp+32]
  00017	48 8d 7c 24 20	 lea	 rdi, QWORD PTR [rsp+32]
  0001c	b9 2a 00 00 00	 mov	 ecx, 42			; 0000002aH
  00021	b8 cc cc cc cc	 mov	 eax, -858993460		; ccccccccH
  00026	f3 ab		 rep stosd
  00028	48 8b 8c 24 a8
	01 00 00	 mov	 rcx, QWORD PTR [rsp+424]
  00030	48 8b 05 00 00
	00 00		 mov	 rax, QWORD PTR __security_cookie
  00037	48 33 c5	 xor	 rax, rbp
  0003a	48 89 85 50 01
	00 00		 mov	 QWORD PTR __$ArrayPad$[rbp], rax
  00041	48 8d 0d 00 00
	00 00		 lea	 rcx, OFFSET FLAT:__0D025353_ostream
  00048	e8 00 00 00 00	 call	 __CheckForDebuggerJustMyCode

; 812  :     // insert a char into char stream
; 813  :     using _Elem = char;
; 814  :     using _Myos = basic_ostream<_Elem, _Traits>;
; 815  : 
; 816  :     ios_base::iostate _State = ios_base::goodbit;

  0004d	c7 45 04 00 00
	00 00		 mov	 DWORD PTR _State$[rbp], 0

; 817  :     const typename _Myos::sentry _Ok(_Ostr);

  00054	48 8b 95 80 01
	00 00		 mov	 rdx, QWORD PTR _Ostr$[rbp]
  0005b	48 8d 4d 28	 lea	 rcx, QWORD PTR _Ok$[rbp]
  0005f	e8 00 00 00 00	 call	 ??0sentry@?$basic_ostream@DU?$char_traits@D@std@@@std@@QEAA@AEAV12@@Z ; std::basic_ostream<char,std::char_traits<char> >::sentry::sentry
  00064	90		 npad	 1

; 818  : 
; 819  :     if (_Ok) { // state okay, insert

  00065	48 8d 4d 28	 lea	 rcx, QWORD PTR _Ok$[rbp]
  00069	e8 00 00 00 00	 call	 ??Bsentry@?$basic_ostream@DU?$char_traits@D@std@@@std@@QEBA_NXZ ; std::basic_ostream<char,std::char_traits<char> >::sentry::operator bool
  0006e	0f b6 c0	 movzx	 eax, al
  00071	85 c0		 test	 eax, eax
  00073	0f 84 60 02 00
	00		 je	 $LN8@operator

; 820  :         streamsize _Pad = _Ostr.width() <= 1 ? 0 : _Ostr.width() - 1;

  00079	48 8b 85 80 01
	00 00		 mov	 rax, QWORD PTR _Ostr$[rbp]
  00080	48 8b 00	 mov	 rax, QWORD PTR [rax]
  00083	48 63 40 04	 movsxd	 rax, DWORD PTR [rax+4]
  00087	48 8b 8d 80 01
	00 00		 mov	 rcx, QWORD PTR _Ostr$[rbp]
  0008e	48 03 c8	 add	 rcx, rax
  00091	48 8b c1	 mov	 rax, rcx
  00094	48 8b c8	 mov	 rcx, rax
  00097	ff 15 00 00 00
	00		 call	 QWORD PTR __imp_?width@ios_base@std@@QEBA_JXZ
  0009d	48 83 f8 01	 cmp	 rax, 1
  000a1	7f 0d		 jg	 SHORT $LN15@operator
  000a3	48 c7 85 48 01
	00 00 00 00 00
	00		 mov	 QWORD PTR tv130[rbp], 0
  000ae	eb 2e		 jmp	 SHORT $LN16@operator
$LN15@operator:
  000b0	48 8b 85 80 01
	00 00		 mov	 rax, QWORD PTR _Ostr$[rbp]
  000b7	48 8b 00	 mov	 rax, QWORD PTR [rax]
  000ba	48 63 40 04	 movsxd	 rax, DWORD PTR [rax+4]
  000be	48 8b 8d 80 01
	00 00		 mov	 rcx, QWORD PTR _Ostr$[rbp]
  000c5	48 03 c8	 add	 rcx, rax
  000c8	48 8b c1	 mov	 rax, rcx
  000cb	48 8b c8	 mov	 rcx, rax
  000ce	ff 15 00 00 00
	00		 call	 QWORD PTR __imp_?width@ios_base@std@@QEBA_JXZ
  000d4	48 ff c8	 dec	 rax
  000d7	48 89 85 48 01
	00 00		 mov	 QWORD PTR tv130[rbp], rax
$LN16@operator:
  000de	48 8b 85 48 01
	00 00		 mov	 rax, QWORD PTR tv130[rbp]
  000e5	48 89 45 58	 mov	 QWORD PTR _Pad$4[rbp], rax

; 821  : 
; 822  :         _TRY_IO_BEGIN
; 823  :         if ((_Ostr.flags() & ios_base::adjustfield) != ios_base::left) {

  000e9	48 8b 85 80 01
	00 00		 mov	 rax, QWORD PTR _Ostr$[rbp]
  000f0	48 8b 00	 mov	 rax, QWORD PTR [rax]
  000f3	48 63 40 04	 movsxd	 rax, DWORD PTR [rax+4]
  000f7	48 8b 8d 80 01
	00 00		 mov	 rcx, QWORD PTR _Ostr$[rbp]
  000fe	48 03 c8	 add	 rcx, rax
  00101	48 8b c1	 mov	 rax, rcx
  00104	48 8b c8	 mov	 rcx, rax
  00107	ff 15 00 00 00
	00		 call	 QWORD PTR __imp_?flags@ios_base@std@@QEBAHXZ
  0010d	25 c0 01 00 00	 and	 eax, 448		; 000001c0H
  00112	83 f8 40	 cmp	 eax, 64			; 00000040H
  00115	0f 84 ad 00 00
	00		 je	 $LN10@operator

; 824  :             for (; _State == ios_base::goodbit && 0 < _Pad; --_Pad) { // pad on left

  0011b	eb 0b		 jmp	 SHORT $LN4@operator
$LN2@operator:
  0011d	48 8b 45 58	 mov	 rax, QWORD PTR _Pad$4[rbp]
  00121	48 ff c8	 dec	 rax
  00124	48 89 45 58	 mov	 QWORD PTR _Pad$4[rbp], rax
$LN4@operator:
  00128	83 7d 04 00	 cmp	 DWORD PTR _State$[rbp], 0
  0012c	0f 85 96 00 00
	00		 jne	 $LN10@operator
  00132	48 83 7d 58 00	 cmp	 QWORD PTR _Pad$4[rbp], 0
  00137	0f 8e 8b 00 00
	00		 jle	 $LN10@operator

; 825  :                 if (_Traits::eq_int_type(_Traits::eof(), _Ostr.rdbuf()->sputc(_Ostr.fill()))) {

  0013d	48 8b 85 80 01
	00 00		 mov	 rax, QWORD PTR _Ostr$[rbp]
  00144	48 8b 00	 mov	 rax, QWORD PTR [rax]
  00147	48 63 40 04	 movsxd	 rax, DWORD PTR [rax+4]
  0014b	48 8b 8d 80 01
	00 00		 mov	 rcx, QWORD PTR _Ostr$[rbp]
  00152	48 03 c8	 add	 rcx, rax
  00155	48 8b c1	 mov	 rax, rcx
  00158	48 8b c8	 mov	 rcx, rax
  0015b	ff 15 00 00 00
	00		 call	 QWORD PTR __imp_?fill@?$basic_ios@DU?$char_traits@D@std@@@std@@QEBADXZ
  00161	88 85 44 01 00
	00		 mov	 BYTE PTR tv274[rbp], al
  00167	48 8b 8d 80 01
	00 00		 mov	 rcx, QWORD PTR _Ostr$[rbp]
  0016e	48 8b 09	 mov	 rcx, QWORD PTR [rcx]
  00171	48 63 49 04	 movsxd	 rcx, DWORD PTR [rcx+4]
  00175	48 8b 95 80 01
	00 00		 mov	 rdx, QWORD PTR _Ostr$[rbp]
  0017c	48 03 d1	 add	 rdx, rcx
  0017f	48 8b ca	 mov	 rcx, rdx
  00182	ff 15 00 00 00
	00		 call	 QWORD PTR __imp_?rdbuf@?$basic_ios@DU?$char_traits@D@std@@@std@@QEBAPEAV?$basic_streambuf@DU?$char_traits@D@std@@@2@XZ
  00188	0f b6 8d 44 01
	00 00		 movzx	 ecx, BYTE PTR tv274[rbp]
  0018f	0f b6 d1	 movzx	 edx, cl
  00192	48 8b c8	 mov	 rcx, rax
  00195	ff 15 00 00 00
	00		 call	 QWORD PTR __imp_?sputc@?$basic_streambuf@DU?$char_traits@D@std@@@std@@QEAAHD@Z
  0019b	89 85 48 01 00
	00		 mov	 DWORD PTR tv65[rbp], eax
  001a1	e8 00 00 00 00	 call	 ?eof@?$_Narrow_char_traits@DH@std@@SAHXZ ; std::_Narrow_char_traits<char,int>::eof
  001a6	8b 95 48 01 00
	00		 mov	 edx, DWORD PTR tv65[rbp]
  001ac	8b c8		 mov	 ecx, eax
  001ae	e8 00 00 00 00	 call	 ?eq_int_type@?$_Narrow_char_traits@DH@std@@SA_NHH@Z ; std::_Narrow_char_traits<char,int>::eq_int_type
  001b3	0f b6 c0	 movzx	 eax, al
  001b6	85 c0		 test	 eax, eax
  001b8	74 09		 je	 SHORT $LN11@operator

; 826  :                     _State |= ios_base::badbit;

  001ba	8b 45 04	 mov	 eax, DWORD PTR _State$[rbp]
  001bd	83 c8 04	 or	 eax, 4
  001c0	89 45 04	 mov	 DWORD PTR _State$[rbp], eax
$LN11@operator:

; 827  :                 }
; 828  :             }

  001c3	e9 55 ff ff ff	 jmp	 $LN2@operator
$LN10@operator:

; 829  :         }
; 830  : 
; 831  :         if (_State == ios_base::goodbit && _Traits::eq_int_type(_Traits::eof(), _Ostr.rdbuf()->sputc(_Ch))) {

  001c8	83 7d 04 00	 cmp	 DWORD PTR _State$[rbp], 0
  001cc	75 5c		 jne	 SHORT $LN12@operator
  001ce	48 8b 85 80 01
	00 00		 mov	 rax, QWORD PTR _Ostr$[rbp]
  001d5	48 8b 00	 mov	 rax, QWORD PTR [rax]
  001d8	48 63 40 04	 movsxd	 rax, DWORD PTR [rax+4]
  001dc	48 8b 8d 80 01
	00 00		 mov	 rcx, QWORD PTR _Ostr$[rbp]
  001e3	48 03 c8	 add	 rcx, rax
  001e6	48 8b c1	 mov	 rax, rcx
  001e9	48 8b c8	 mov	 rcx, rax
  001ec	ff 15 00 00 00
	00		 call	 QWORD PTR __imp_?rdbuf@?$basic_ios@DU?$char_traits@D@std@@@std@@QEBAPEAV?$basic_streambuf@DU?$char_traits@D@std@@@2@XZ
  001f2	0f b6 95 88 01
	00 00		 movzx	 edx, BYTE PTR _Ch$[rbp]
  001f9	48 8b c8	 mov	 rcx, rax
  001fc	ff 15 00 00 00
	00		 call	 QWORD PTR __imp_?sputc@?$basic_streambuf@DU?$char_traits@D@std@@@std@@QEAAHD@Z
  00202	89 85 44 01 00
	00		 mov	 DWORD PTR tv284[rbp], eax
  00208	e8 00 00 00 00	 call	 ?eof@?$_Narrow_char_traits@DH@std@@SAHXZ ; std::_Narrow_char_traits<char,int>::eof
  0020d	8b 95 44 01 00
	00		 mov	 edx, DWORD PTR tv284[rbp]
  00213	8b c8		 mov	 ecx, eax
  00215	e8 00 00 00 00	 call	 ?eq_int_type@?$_Narrow_char_traits@DH@std@@SA_NHH@Z ; std::_Narrow_char_traits<char,int>::eq_int_type
  0021a	0f b6 c0	 movzx	 eax, al
  0021d	85 c0		 test	 eax, eax
  0021f	74 09		 je	 SHORT $LN12@operator

; 832  :             _State |= ios_base::badbit;

  00221	8b 45 04	 mov	 eax, DWORD PTR _State$[rbp]
  00224	83 c8 04	 or	 eax, 4
  00227	89 45 04	 mov	 DWORD PTR _State$[rbp], eax
$LN12@operator:

; 833  :         }
; 834  : 
; 835  :         for (; _State == ios_base::goodbit && 0 < _Pad; --_Pad) { // pad on right

  0022a	eb 0b		 jmp	 SHORT $LN7@operator
$LN5@operator:
  0022c	48 8b 45 58	 mov	 rax, QWORD PTR _Pad$4[rbp]
  00230	48 ff c8	 dec	 rax
  00233	48 89 45 58	 mov	 QWORD PTR _Pad$4[rbp], rax
$LN7@operator:
  00237	83 7d 04 00	 cmp	 DWORD PTR _State$[rbp], 0
  0023b	0f 85 96 00 00
	00		 jne	 $LN6@operator
  00241	48 83 7d 58 00	 cmp	 QWORD PTR _Pad$4[rbp], 0
  00246	0f 8e 8b 00 00
	00		 jle	 $LN6@operator

; 836  :             if (_Traits::eq_int_type(_Traits::eof(), _Ostr.rdbuf()->sputc(_Ostr.fill()))) {

  0024c	48 8b 85 80 01
	00 00		 mov	 rax, QWORD PTR _Ostr$[rbp]
  00253	48 8b 00	 mov	 rax, QWORD PTR [rax]
  00256	48 63 40 04	 movsxd	 rax, DWORD PTR [rax+4]
  0025a	48 8b 8d 80 01
	00 00		 mov	 rcx, QWORD PTR _Ostr$[rbp]
  00261	48 03 c8	 add	 rcx, rax
  00264	48 8b c1	 mov	 rax, rcx
  00267	48 8b c8	 mov	 rcx, rax
  0026a	ff 15 00 00 00
	00		 call	 QWORD PTR __imp_?fill@?$basic_ios@DU?$char_traits@D@std@@@std@@QEBADXZ
  00270	88 85 44 01 00
	00		 mov	 BYTE PTR tv271[rbp], al
  00276	48 8b 8d 80 01
	00 00		 mov	 rcx, QWORD PTR _Ostr$[rbp]
  0027d	48 8b 09	 mov	 rcx, QWORD PTR [rcx]
  00280	48 63 49 04	 movsxd	 rcx, DWORD PTR [rcx+4]
  00284	48 8b 95 80 01
	00 00		 mov	 rdx, QWORD PTR _Ostr$[rbp]
  0028b	48 03 d1	 add	 rdx, rcx
  0028e	48 8b ca	 mov	 rcx, rdx
  00291	ff 15 00 00 00
	00		 call	 QWORD PTR __imp_?rdbuf@?$basic_ios@DU?$char_traits@D@std@@@std@@QEBAPEAV?$basic_streambuf@DU?$char_traits@D@std@@@2@XZ
  00297	0f b6 8d 44 01
	00 00		 movzx	 ecx, BYTE PTR tv271[rbp]
  0029e	0f b6 d1	 movzx	 edx, cl
  002a1	48 8b c8	 mov	 rcx, rax
  002a4	ff 15 00 00 00
	00		 call	 QWORD PTR __imp_?sputc@?$basic_streambuf@DU?$char_traits@D@std@@@std@@QEAAHD@Z
  002aa	89 85 48 01 00
	00		 mov	 DWORD PTR tv285[rbp], eax
  002b0	e8 00 00 00 00	 call	 ?eof@?$_Narrow_char_traits@DH@std@@SAHXZ ; std::_Narrow_char_traits<char,int>::eof
  002b5	8b 95 48 01 00
	00		 mov	 edx, DWORD PTR tv285[rbp]
  002bb	8b c8		 mov	 ecx, eax
  002bd	e8 00 00 00 00	 call	 ?eq_int_type@?$_Narrow_char_traits@DH@std@@SA_NHH@Z ; std::_Narrow_char_traits<char,int>::eq_int_type
  002c2	0f b6 c0	 movzx	 eax, al
  002c5	85 c0		 test	 eax, eax
  002c7	74 09		 je	 SHORT $LN13@operator

; 837  :                 _State |= ios_base::badbit;

  002c9	8b 45 04	 mov	 eax, DWORD PTR _State$[rbp]
  002cc	83 c8 04	 or	 eax, 4
  002cf	89 45 04	 mov	 DWORD PTR _State$[rbp], eax
$LN13@operator:

; 838  :             }
; 839  :         }

  002d2	e9 55 ff ff ff	 jmp	 $LN5@operator
$LN6@operator:
  002d7	eb 00		 jmp	 SHORT $LN8@operator
$LN21@operator:
$LN8@operator:

; 840  :         _CATCH_IO_(ios_base, _Ostr)
; 841  :     }
; 842  : 
; 843  :     _Ostr.width(0);

  002d9	48 8b 85 80 01
	00 00		 mov	 rax, QWORD PTR _Ostr$[rbp]
  002e0	48 8b 00	 mov	 rax, QWORD PTR [rax]
  002e3	48 63 40 04	 movsxd	 rax, DWORD PTR [rax+4]
  002e7	48 8b 8d 80 01
	00 00		 mov	 rcx, QWORD PTR _Ostr$[rbp]
  002ee	48 03 c8	 add	 rcx, rax
  002f1	48 8b c1	 mov	 rax, rcx
  002f4	33 d2		 xor	 edx, edx
  002f6	48 8b c8	 mov	 rcx, rax
  002f9	ff 15 00 00 00
	00		 call	 QWORD PTR __imp_?width@ios_base@std@@QEAA_J_J@Z

; 844  :     _Ostr.setstate(_State);

  002ff	48 8b 85 80 01
	00 00		 mov	 rax, QWORD PTR _Ostr$[rbp]
  00306	48 8b 00	 mov	 rax, QWORD PTR [rax]
  00309	48 63 40 04	 movsxd	 rax, DWORD PTR [rax+4]
  0030d	48 8b 8d 80 01
	00 00		 mov	 rcx, QWORD PTR _Ostr$[rbp]
  00314	48 03 c8	 add	 rcx, rax
  00317	48 8b c1	 mov	 rax, rcx
  0031a	45 33 c0	 xor	 r8d, r8d
  0031d	8b 55 04	 mov	 edx, DWORD PTR _State$[rbp]
  00320	48 8b c8	 mov	 rcx, rax
  00323	ff 15 00 00 00
	00		 call	 QWORD PTR __imp_?setstate@?$basic_ios@DU?$char_traits@D@std@@@std@@QEAAXH_N@Z

; 845  :     return _Ostr;

  00329	48 8b 85 80 01
	00 00		 mov	 rax, QWORD PTR _Ostr$[rbp]
  00330	48 89 85 38 01
	00 00		 mov	 QWORD PTR $T5[rbp], rax
  00337	48 8d 4d 28	 lea	 rcx, QWORD PTR _Ok$[rbp]
  0033b	e8 00 00 00 00	 call	 ??1sentry@?$basic_ostream@DU?$char_traits@D@std@@@std@@QEAA@XZ ; std::basic_ostream<char,std::char_traits<char> >::sentry::~sentry
  00340	48 8b 85 38 01
	00 00		 mov	 rax, QWORD PTR $T5[rbp]

; 846  : }

  00347	48 8b f8	 mov	 rdi, rax
  0034a	48 8d 4d e0	 lea	 rcx, QWORD PTR [rbp-32]
  0034e	48 8d 15 00 00
	00 00		 lea	 rdx, OFFSET FLAT:??$?6U?$char_traits@D@std@@@std@@YAAEAV?$basic_ostream@DU?$char_traits@D@std@@@0@AEAV10@D@Z$rtcFrameData
  00355	e8 00 00 00 00	 call	 _RTC_CheckStackVars
  0035a	48 8b c7	 mov	 rax, rdi
  0035d	48 8b 8d 50 01
	00 00		 mov	 rcx, QWORD PTR __$ArrayPad$[rbp]
  00364	48 33 cd	 xor	 rcx, rbp
  00367	e8 00 00 00 00	 call	 __security_check_cookie
  0036c	48 8d a5 68 01
	00 00		 lea	 rsp, QWORD PTR [rbp+360]
  00373	5f		 pop	 rdi
  00374	5d		 pop	 rbp
  00375	c3		 ret	 0
??$?6U?$char_traits@D@std@@@std@@YAAEAV?$basic_ostream@DU?$char_traits@D@std@@@0@AEAV10@D@Z ENDP ; std::operator<<<std::char_traits<char> >
_TEXT	ENDS
; Function compile flags: /Odtp /RTCsu /ZI
;	COMDAT text$x
text$x	SEGMENT
_State$ = 4
_Ok$ = 40
_Pad$4 = 88
$T5 = 312
tv284 = 324
tv274 = 324
tv271 = 324
tv285 = 328
tv130 = 328
tv65 = 328
__$ArrayPad$ = 336
_Ostr$ = 384
_Ch$ = 392
?dtor$0@?0???$?6U?$char_traits@D@std@@@std@@YAAEAV?$basic_ostream@DU?$char_traits@D@std@@@0@AEAV10@D@Z@4HA PROC ; `std::operator<<<std::char_traits<char> >'::`1'::dtor$0
  00000	48 89 4c 24 08	 mov	 QWORD PTR [rsp+8], rcx
  00005	48 89 54 24 10	 mov	 QWORD PTR [rsp+16], rdx
  0000a	55		 push	 rbp
  0000b	57		 push	 rdi
  0000c	48 83 ec 28	 sub	 rsp, 40			; 00000028H
  00010	48 8d 6a 20	 lea	 rbp, QWORD PTR [rdx+32]
  00014	48 8d 4d 28	 lea	 rcx, QWORD PTR _Ok$[rbp]
  00018	e8 00 00 00 00	 call	 ??1sentry@?$basic_ostream@DU?$char_traits@D@std@@@std@@QEAA@XZ ; std::basic_ostream<char,std::char_traits<char> >::sentry::~sentry
  0001d	48 83 c4 28	 add	 rsp, 40			; 00000028H
  00021	5f		 pop	 rdi
  00022	5d		 pop	 rbp
  00023	c3		 ret	 0
?dtor$0@?0???$?6U?$char_traits@D@std@@@std@@YAAEAV?$basic_ostream@DU?$char_traits@D@std@@@0@AEAV10@D@Z@4HA ENDP ; `std::operator<<<std::char_traits<char> >'::`1'::dtor$0
text$x	ENDS
; Function compile flags: /Odtp /RTCsu /ZI
;	COMDAT text$x
text$x	SEGMENT
_State$ = 4
_Ok$ = 40
_Pad$4 = 88
$T5 = 312
tv284 = 324
tv274 = 324
tv271 = 324
tv285 = 328
tv130 = 328
tv65 = 328
__$ArrayPad$ = 336
_Ostr$ = 384
_Ch$ = 392
?catch$1@?0???$?6U?$char_traits@D@std@@@std@@YAAEAV?$basic_ostream@DU?$char_traits@D@std@@@0@AEAV10@D@Z@4HA PROC ; `std::operator<<<std::char_traits<char> >'::`1'::catch$1

; 840  :         _CATCH_IO_(ios_base, _Ostr)

  00000	48 89 4c 24 08	 mov	 QWORD PTR [rsp+8], rcx
  00005	48 89 54 24 10	 mov	 QWORD PTR [rsp+16], rdx
  0000a	55		 push	 rbp
  0000b	57		 push	 rdi
  0000c	48 83 ec 28	 sub	 rsp, 40			; 00000028H
  00010	48 8d 6a 20	 lea	 rbp, QWORD PTR [rdx+32]
__catch$??$?6U?$char_traits@D@std@@@std@@YAAEAV?$basic_ostream@DU?$char_traits@D@std@@@0@AEAV10@D@Z$0:
  00014	48 8b 85 80 01
	00 00		 mov	 rax, QWORD PTR _Ostr$[rbp]
  0001b	48 8b 00	 mov	 rax, QWORD PTR [rax]
  0001e	48 63 40 04	 movsxd	 rax, DWORD PTR [rax+4]
  00022	48 8b 8d 80 01
	00 00		 mov	 rcx, QWORD PTR _Ostr$[rbp]
  00029	48 03 c8	 add	 rcx, rax
  0002c	48 8b c1	 mov	 rax, rcx
  0002f	41 b0 01	 mov	 r8b, 1
  00032	ba 04 00 00 00	 mov	 edx, 4
  00037	48 8b c8	 mov	 rcx, rax
  0003a	ff 15 00 00 00
	00		 call	 QWORD PTR __imp_?setstate@?$basic_ios@DU?$char_traits@D@std@@@std@@QEAAXH_N@Z
  00040	90		 npad	 1
  00041	48 8d 05 00 00
	00 00		 lea	 rax, $LN21@catch$1
  00048	48 83 c4 28	 add	 rsp, 40			; 00000028H
  0004c	5f		 pop	 rdi
  0004d	5d		 pop	 rbp
  0004e	c3		 ret	 0
  0004f	cc		 int	 3
?catch$1@?0???$?6U?$char_traits@D@std@@@std@@YAAEAV?$basic_ostream@DU?$char_traits@D@std@@@0@AEAV10@D@Z@4HA ENDP ; `std::operator<<<std::char_traits<char> >'::`1'::catch$1
text$x	ENDS
; Function compile flags: /Odtp /RTCsu /ZI
; File D:\Visual Studio\2022\Community\VC\Tools\MSVC\14.38.33130\include\ostream
;	COMDAT ??$?6U?$char_traits@D@std@@@std@@YAAEAV?$basic_ostream@DU?$char_traits@D@std@@@0@AEAV10@PEBD@Z
_TEXT	SEGMENT
_State$ = 4
_Count$ = 40
_Pad$ = 72
_Ok$ = 104
$T4 = 344
tv285 = 356
tv283 = 356
tv296 = 360
tv295 = 360
tv139 = 360
tv137 = 360
__$ArrayPad$ = 368
_Ostr$ = 416
_Val$ = 424
??$?6U?$char_traits@D@std@@@std@@YAAEAV?$basic_ostream@DU?$char_traits@D@std@@@0@AEAV10@PEBD@Z PROC ; std::operator<<<std::char_traits<char> >, COMDAT

; 766  : basic_ostream<char, _Traits>& operator<<(basic_ostream<char, _Traits>& _Ostr, const char* _Val) {

$LN25:
  00000	48 89 54 24 10	 mov	 QWORD PTR [rsp+16], rdx
  00005	48 89 4c 24 08	 mov	 QWORD PTR [rsp+8], rcx
  0000a	55		 push	 rbp
  0000b	57		 push	 rdi
  0000c	48 81 ec a8 01
	00 00		 sub	 rsp, 424		; 000001a8H
  00013	48 8d 6c 24 20	 lea	 rbp, QWORD PTR [rsp+32]
  00018	48 8d 7c 24 20	 lea	 rdi, QWORD PTR [rsp+32]
  0001d	b9 32 00 00 00	 mov	 ecx, 50			; 00000032H
  00022	b8 cc cc cc cc	 mov	 eax, -858993460		; ccccccccH
  00027	f3 ab		 rep stosd
  00029	48 8b 8c 24 c8
	01 00 00	 mov	 rcx, QWORD PTR [rsp+456]
  00031	48 8b 05 00 00
	00 00		 mov	 rax, QWORD PTR __security_cookie
  00038	48 33 c5	 xor	 rax, rbp
  0003b	48 89 85 70 01
	00 00		 mov	 QWORD PTR __$ArrayPad$[rbp], rax
  00042	48 8d 0d 00 00
	00 00		 lea	 rcx, OFFSET FLAT:__0D025353_ostream
  00049	e8 00 00 00 00	 call	 __CheckForDebuggerJustMyCode

; 767  :     // insert NTBS into char stream
; 768  :     using _Elem = char;
; 769  :     using _Myos = basic_ostream<_Elem, _Traits>;
; 770  : 
; 771  :     ios_base::iostate _State = ios_base::goodbit;

  0004e	c7 45 04 00 00
	00 00		 mov	 DWORD PTR _State$[rbp], 0

; 772  :     streamsize _Count        = static_cast<streamsize>(_Traits::length(_Val));

  00055	48 8b 8d a8 01
	00 00		 mov	 rcx, QWORD PTR _Val$[rbp]
  0005c	e8 00 00 00 00	 call	 ?length@?$_Narrow_char_traits@DH@std@@SA_KQEBD@Z ; std::_Narrow_char_traits<char,int>::length
  00061	48 89 45 28	 mov	 QWORD PTR _Count$[rbp], rax

; 773  :     streamsize _Pad          = _Ostr.width() <= 0 || _Ostr.width() <= _Count ? 0 : _Ostr.width() - _Count;

  00065	48 8b 85 a0 01
	00 00		 mov	 rax, QWORD PTR _Ostr$[rbp]
  0006c	48 8b 00	 mov	 rax, QWORD PTR [rax]
  0006f	48 63 40 04	 movsxd	 rax, DWORD PTR [rax+4]
  00073	48 8b 8d a0 01
	00 00		 mov	 rcx, QWORD PTR _Ostr$[rbp]
  0007a	48 03 c8	 add	 rcx, rax
  0007d	48 8b c1	 mov	 rax, rcx
  00080	48 8b c8	 mov	 rcx, rax
  00083	ff 15 00 00 00
	00		 call	 QWORD PTR __imp_?width@ios_base@std@@QEBA_JXZ
  00089	48 85 c0	 test	 rax, rax
  0008c	7e 5b		 jle	 SHORT $LN17@operator
  0008e	48 8b 85 a0 01
	00 00		 mov	 rax, QWORD PTR _Ostr$[rbp]
  00095	48 8b 00	 mov	 rax, QWORD PTR [rax]
  00098	48 63 40 04	 movsxd	 rax, DWORD PTR [rax+4]
  0009c	48 8b 8d a0 01
	00 00		 mov	 rcx, QWORD PTR _Ostr$[rbp]
  000a3	48 03 c8	 add	 rcx, rax
  000a6	48 8b c1	 mov	 rax, rcx
  000a9	48 8b c8	 mov	 rcx, rax
  000ac	ff 15 00 00 00
	00		 call	 QWORD PTR __imp_?width@ios_base@std@@QEBA_JXZ
  000b2	48 3b 45 28	 cmp	 rax, QWORD PTR _Count$[rbp]
  000b6	7e 31		 jle	 SHORT $LN17@operator
  000b8	48 8b 85 a0 01
	00 00		 mov	 rax, QWORD PTR _Ostr$[rbp]
  000bf	48 8b 00	 mov	 rax, QWORD PTR [rax]
  000c2	48 63 40 04	 movsxd	 rax, DWORD PTR [rax+4]
  000c6	48 8b 8d a0 01
	00 00		 mov	 rcx, QWORD PTR _Ostr$[rbp]
  000cd	48 03 c8	 add	 rcx, rax
  000d0	48 8b c1	 mov	 rax, rcx
  000d3	48 8b c8	 mov	 rcx, rax
  000d6	ff 15 00 00 00
	00		 call	 QWORD PTR __imp_?width@ios_base@std@@QEBA_JXZ
  000dc	48 2b 45 28	 sub	 rax, QWORD PTR _Count$[rbp]
  000e0	48 89 85 68 01
	00 00		 mov	 QWORD PTR tv137[rbp], rax
  000e7	eb 0b		 jmp	 SHORT $LN18@operator
$LN17@operator:
  000e9	48 c7 85 68 01
	00 00 00 00 00
	00		 mov	 QWORD PTR tv137[rbp], 0
$LN18@operator:
  000f4	48 8b 85 68 01
	00 00		 mov	 rax, QWORD PTR tv137[rbp]
  000fb	48 89 45 48	 mov	 QWORD PTR _Pad$[rbp], rax

; 774  :     const typename _Myos::sentry _Ok(_Ostr);

  000ff	48 8b 95 a0 01
	00 00		 mov	 rdx, QWORD PTR _Ostr$[rbp]
  00106	48 8d 4d 68	 lea	 rcx, QWORD PTR _Ok$[rbp]
  0010a	e8 00 00 00 00	 call	 ??0sentry@?$basic_ostream@DU?$char_traits@D@std@@@std@@QEAA@AEAV12@@Z ; std::basic_ostream<char,std::char_traits<char> >::sentry::sentry
  0010f	90		 npad	 1

; 775  : 
; 776  :     if (!_Ok) {

  00110	48 8d 4d 68	 lea	 rcx, QWORD PTR _Ok$[rbp]
  00114	e8 00 00 00 00	 call	 ??Bsentry@?$basic_ostream@DU?$char_traits@D@std@@@std@@QEBA_NXZ ; std::basic_ostream<char,std::char_traits<char> >::sentry::operator bool
  00119	0f b6 c0	 movzx	 eax, al
  0011c	85 c0		 test	 eax, eax
  0011e	75 0e		 jne	 SHORT $LN8@operator

; 777  :         _State |= ios_base::badbit;

  00120	8b 45 04	 mov	 eax, DWORD PTR _State$[rbp]
  00123	83 c8 04	 or	 eax, 4
  00126	89 45 04	 mov	 DWORD PTR _State$[rbp], eax

; 778  :     } else { // state okay, insert

  00129	e9 0a 02 00 00	 jmp	 $LN9@operator
$LN8@operator:

; 779  :         _TRY_IO_BEGIN
; 780  :         if ((_Ostr.flags() & ios_base::adjustfield) != ios_base::left) {

  0012e	48 8b 85 a0 01
	00 00		 mov	 rax, QWORD PTR _Ostr$[rbp]
  00135	48 8b 00	 mov	 rax, QWORD PTR [rax]
  00138	48 63 40 04	 movsxd	 rax, DWORD PTR [rax+4]
  0013c	48 8b 8d a0 01
	00 00		 mov	 rcx, QWORD PTR _Ostr$[rbp]
  00143	48 03 c8	 add	 rcx, rax
  00146	48 8b c1	 mov	 rax, rcx
  00149	48 8b c8	 mov	 rcx, rax
  0014c	ff 15 00 00 00
	00		 call	 QWORD PTR __imp_?flags@ios_base@std@@QEBAHXZ
  00152	25 c0 01 00 00	 and	 eax, 448		; 000001c0H
  00157	83 f8 40	 cmp	 eax, 64			; 00000040H
  0015a	0f 84 a5 00 00
	00		 je	 $LN11@operator

; 781  :             for (; 0 < _Pad; --_Pad) { // pad on left

  00160	eb 0b		 jmp	 SHORT $LN4@operator
$LN2@operator:
  00162	48 8b 45 48	 mov	 rax, QWORD PTR _Pad$[rbp]
  00166	48 ff c8	 dec	 rax
  00169	48 89 45 48	 mov	 QWORD PTR _Pad$[rbp], rax
$LN4@operator:
  0016d	48 83 7d 48 00	 cmp	 QWORD PTR _Pad$[rbp], 0
  00172	0f 8e 8d 00 00
	00		 jle	 $LN11@operator

; 782  :                 if (_Traits::eq_int_type(_Traits::eof(), _Ostr.rdbuf()->sputc(_Ostr.fill()))) {

  00178	48 8b 85 a0 01
	00 00		 mov	 rax, QWORD PTR _Ostr$[rbp]
  0017f	48 8b 00	 mov	 rax, QWORD PTR [rax]
  00182	48 63 40 04	 movsxd	 rax, DWORD PTR [rax+4]
  00186	48 8b 8d a0 01
	00 00		 mov	 rcx, QWORD PTR _Ostr$[rbp]
  0018d	48 03 c8	 add	 rcx, rax
  00190	48 8b c1	 mov	 rax, rcx
  00193	48 8b c8	 mov	 rcx, rax
  00196	ff 15 00 00 00
	00		 call	 QWORD PTR __imp_?fill@?$basic_ios@DU?$char_traits@D@std@@@std@@QEBADXZ
  0019c	88 85 64 01 00
	00		 mov	 BYTE PTR tv285[rbp], al
  001a2	48 8b 8d a0 01
	00 00		 mov	 rcx, QWORD PTR _Ostr$[rbp]
  001a9	48 8b 09	 mov	 rcx, QWORD PTR [rcx]
  001ac	48 63 49 04	 movsxd	 rcx, DWORD PTR [rcx+4]
  001b0	48 8b 95 a0 01
	00 00		 mov	 rdx, QWORD PTR _Ostr$[rbp]
  001b7	48 03 d1	 add	 rdx, rcx
  001ba	48 8b ca	 mov	 rcx, rdx
  001bd	ff 15 00 00 00
	00		 call	 QWORD PTR __imp_?rdbuf@?$basic_ios@DU?$char_traits@D@std@@@std@@QEBAPEAV?$basic_streambuf@DU?$char_traits@D@std@@@2@XZ
  001c3	0f b6 8d 64 01
	00 00		 movzx	 ecx, BYTE PTR tv285[rbp]
  001ca	0f b6 d1	 movzx	 edx, cl
  001cd	48 8b c8	 mov	 rcx, rax
  001d0	ff 15 00 00 00
	00		 call	 QWORD PTR __imp_?sputc@?$basic_streambuf@DU?$char_traits@D@std@@@std@@QEAAHD@Z
  001d6	89 85 68 01 00
	00		 mov	 DWORD PTR tv139[rbp], eax
  001dc	e8 00 00 00 00	 call	 ?eof@?$_Narrow_char_traits@DH@std@@SAHXZ ; std::_Narrow_char_traits<char,int>::eof
  001e1	8b 95 68 01 00
	00		 mov	 edx, DWORD PTR tv139[rbp]
  001e7	8b c8		 mov	 ecx, eax
  001e9	e8 00 00 00 00	 call	 ?eq_int_type@?$_Narrow_char_traits@DH@std@@SA_NHH@Z ; std::_Narrow_char_traits<char,int>::eq_int_type
  001ee	0f b6 c0	 movzx	 eax, al
  001f1	85 c0		 test	 eax, eax
  001f3	74 0b		 je	 SHORT $LN12@operator

; 783  :                     _State |= ios_base::badbit; // insertion failed, quit

  001f5	8b 45 04	 mov	 eax, DWORD PTR _State$[rbp]
  001f8	83 c8 04	 or	 eax, 4
  001fb	89 45 04	 mov	 DWORD PTR _State$[rbp], eax

; 784  :                     break;

  001fe	eb 05		 jmp	 SHORT $LN11@operator
$LN12@operator:

; 785  :                 }
; 786  :             }

  00200	e9 5d ff ff ff	 jmp	 $LN2@operator
$LN11@operator:

; 787  :         }
; 788  : 
; 789  :         if (_State == ios_base::goodbit && _Ostr.rdbuf()->sputn(_Val, _Count) != _Count) {

  00205	83 7d 04 00	 cmp	 DWORD PTR _State$[rbp], 0
  00209	75 55		 jne	 SHORT $LN13@operator
  0020b	48 8b 85 a0 01
	00 00		 mov	 rax, QWORD PTR _Ostr$[rbp]
  00212	48 8b 00	 mov	 rax, QWORD PTR [rax]
  00215	48 63 40 04	 movsxd	 rax, DWORD PTR [rax+4]
  00219	48 8b 8d a0 01
	00 00		 mov	 rcx, QWORD PTR _Ostr$[rbp]
  00220	48 03 c8	 add	 rcx, rax
  00223	48 8b c1	 mov	 rax, rcx
  00226	48 8b c8	 mov	 rcx, rax
  00229	ff 15 00 00 00
	00		 call	 QWORD PTR __imp_?rdbuf@?$basic_ios@DU?$char_traits@D@std@@@std@@QEBAPEAV?$basic_streambuf@DU?$char_traits@D@std@@@2@XZ
  0022f	4c 8b 45 28	 mov	 r8, QWORD PTR _Count$[rbp]
  00233	48 8b 95 a8 01
	00 00		 mov	 rdx, QWORD PTR _Val$[rbp]
  0023a	48 8b c8	 mov	 rcx, rax
  0023d	ff 15 00 00 00
	00		 call	 QWORD PTR __imp_?sputn@?$basic_streambuf@DU?$char_traits@D@std@@@std@@QEAA_JPEBD_J@Z
  00243	48 89 85 68 01
	00 00		 mov	 QWORD PTR tv295[rbp], rax
  0024a	48 8b 45 28	 mov	 rax, QWORD PTR _Count$[rbp]
  0024e	48 39 85 68 01
	00 00		 cmp	 QWORD PTR tv295[rbp], rax
  00255	74 09		 je	 SHORT $LN13@operator

; 790  :             _State |= ios_base::badbit;

  00257	8b 45 04	 mov	 eax, DWORD PTR _State$[rbp]
  0025a	83 c8 04	 or	 eax, 4
  0025d	89 45 04	 mov	 DWORD PTR _State$[rbp], eax
$LN13@operator:

; 791  :         }
; 792  : 
; 793  :         if (_State == ios_base::goodbit) {

  00260	83 7d 04 00	 cmp	 DWORD PTR _State$[rbp], 0
  00264	0f 85 a5 00 00
	00		 jne	 $LN14@operator

; 794  :             for (; 0 < _Pad; --_Pad) { // pad on right

  0026a	eb 0b		 jmp	 SHORT $LN7@operator
$LN5@operator:
  0026c	48 8b 45 48	 mov	 rax, QWORD PTR _Pad$[rbp]
  00270	48 ff c8	 dec	 rax
  00273	48 89 45 48	 mov	 QWORD PTR _Pad$[rbp], rax
$LN7@operator:
  00277	48 83 7d 48 00	 cmp	 QWORD PTR _Pad$[rbp], 0
  0027c	0f 8e 8d 00 00
	00		 jle	 $LN14@operator

; 795  :                 if (_Traits::eq_int_type(_Traits::eof(), _Ostr.rdbuf()->sputc(_Ostr.fill()))) {

  00282	48 8b 85 a0 01
	00 00		 mov	 rax, QWORD PTR _Ostr$[rbp]
  00289	48 8b 00	 mov	 rax, QWORD PTR [rax]
  0028c	48 63 40 04	 movsxd	 rax, DWORD PTR [rax+4]
  00290	48 8b 8d a0 01
	00 00		 mov	 rcx, QWORD PTR _Ostr$[rbp]
  00297	48 03 c8	 add	 rcx, rax
  0029a	48 8b c1	 mov	 rax, rcx
  0029d	48 8b c8	 mov	 rcx, rax
  002a0	ff 15 00 00 00
	00		 call	 QWORD PTR __imp_?fill@?$basic_ios@DU?$char_traits@D@std@@@std@@QEBADXZ
  002a6	88 85 64 01 00
	00		 mov	 BYTE PTR tv283[rbp], al
  002ac	48 8b 8d a0 01
	00 00		 mov	 rcx, QWORD PTR _Ostr$[rbp]
  002b3	48 8b 09	 mov	 rcx, QWORD PTR [rcx]
  002b6	48 63 49 04	 movsxd	 rcx, DWORD PTR [rcx+4]
  002ba	48 8b 95 a0 01
	00 00		 mov	 rdx, QWORD PTR _Ostr$[rbp]
  002c1	48 03 d1	 add	 rdx, rcx
  002c4	48 8b ca	 mov	 rcx, rdx
  002c7	ff 15 00 00 00
	00		 call	 QWORD PTR __imp_?rdbuf@?$basic_ios@DU?$char_traits@D@std@@@std@@QEBAPEAV?$basic_streambuf@DU?$char_traits@D@std@@@2@XZ
  002cd	0f b6 8d 64 01
	00 00		 movzx	 ecx, BYTE PTR tv283[rbp]
  002d4	0f b6 d1	 movzx	 edx, cl
  002d7	48 8b c8	 mov	 rcx, rax
  002da	ff 15 00 00 00
	00		 call	 QWORD PTR __imp_?sputc@?$basic_streambuf@DU?$char_traits@D@std@@@std@@QEAAHD@Z
  002e0	89 85 68 01 00
	00		 mov	 DWORD PTR tv296[rbp], eax
  002e6	e8 00 00 00 00	 call	 ?eof@?$_Narrow_char_traits@DH@std@@SAHXZ ; std::_Narrow_char_traits<char,int>::eof
  002eb	8b 95 68 01 00
	00		 mov	 edx, DWORD PTR tv296[rbp]
  002f1	8b c8		 mov	 ecx, eax
  002f3	e8 00 00 00 00	 call	 ?eq_int_type@?$_Narrow_char_traits@DH@std@@SA_NHH@Z ; std::_Narrow_char_traits<char,int>::eq_int_type
  002f8	0f b6 c0	 movzx	 eax, al
  002fb	85 c0		 test	 eax, eax
  002fd	74 0b		 je	 SHORT $LN15@operator

; 796  :                     _State |= ios_base::badbit; // insertion failed, quit

  002ff	8b 45 04	 mov	 eax, DWORD PTR _State$[rbp]
  00302	83 c8 04	 or	 eax, 4
  00305	89 45 04	 mov	 DWORD PTR _State$[rbp], eax

; 797  :                     break;

  00308	eb 05		 jmp	 SHORT $LN14@operator
$LN15@operator:

; 798  :                 }
; 799  :             }

  0030a	e9 5d ff ff ff	 jmp	 $LN5@operator
$LN14@operator:

; 800  :         }
; 801  : 
; 802  :         _Ostr.width(0);

  0030f	48 8b 85 a0 01
	00 00		 mov	 rax, QWORD PTR _Ostr$[rbp]
  00316	48 8b 00	 mov	 rax, QWORD PTR [rax]
  00319	48 63 40 04	 movsxd	 rax, DWORD PTR [rax+4]
  0031d	48 8b 8d a0 01
	00 00		 mov	 rcx, QWORD PTR _Ostr$[rbp]
  00324	48 03 c8	 add	 rcx, rax
  00327	48 8b c1	 mov	 rax, rcx
  0032a	33 d2		 xor	 edx, edx
  0032c	48 8b c8	 mov	 rcx, rax
  0032f	ff 15 00 00 00
	00		 call	 QWORD PTR __imp_?width@ios_base@std@@QEAA_J_J@Z
  00335	90		 npad	 1
  00336	eb 00		 jmp	 SHORT $LN9@operator
$LN23@operator:
$LN9@operator:

; 803  :         _CATCH_IO_(ios_base, _Ostr)
; 804  :     }
; 805  : 
; 806  :     _Ostr.setstate(_State);

  00338	48 8b 85 a0 01
	00 00		 mov	 rax, QWORD PTR _Ostr$[rbp]
  0033f	48 8b 00	 mov	 rax, QWORD PTR [rax]
  00342	48 63 40 04	 movsxd	 rax, DWORD PTR [rax+4]
  00346	48 8b 8d a0 01
	00 00		 mov	 rcx, QWORD PTR _Ostr$[rbp]
  0034d	48 03 c8	 add	 rcx, rax
  00350	48 8b c1	 mov	 rax, rcx
  00353	45 33 c0	 xor	 r8d, r8d
  00356	8b 55 04	 mov	 edx, DWORD PTR _State$[rbp]
  00359	48 8b c8	 mov	 rcx, rax
  0035c	ff 15 00 00 00
	00		 call	 QWORD PTR __imp_?setstate@?$basic_ios@DU?$char_traits@D@std@@@std@@QEAAXH_N@Z

; 807  :     return _Ostr;

  00362	48 8b 85 a0 01
	00 00		 mov	 rax, QWORD PTR _Ostr$[rbp]
  00369	48 89 85 58 01
	00 00		 mov	 QWORD PTR $T4[rbp], rax
  00370	48 8d 4d 68	 lea	 rcx, QWORD PTR _Ok$[rbp]
  00374	e8 00 00 00 00	 call	 ??1sentry@?$basic_ostream@DU?$char_traits@D@std@@@std@@QEAA@XZ ; std::basic_ostream<char,std::char_traits<char> >::sentry::~sentry
  00379	48 8b 85 58 01
	00 00		 mov	 rax, QWORD PTR $T4[rbp]

; 808  : }

  00380	48 8b f8	 mov	 rdi, rax
  00383	48 8d 4d e0	 lea	 rcx, QWORD PTR [rbp-32]
  00387	48 8d 15 00 00
	00 00		 lea	 rdx, OFFSET FLAT:??$?6U?$char_traits@D@std@@@std@@YAAEAV?$basic_ostream@DU?$char_traits@D@std@@@0@AEAV10@PEBD@Z$rtcFrameData
  0038e	e8 00 00 00 00	 call	 _RTC_CheckStackVars
  00393	48 8b c7	 mov	 rax, rdi
  00396	48 8b 8d 70 01
	00 00		 mov	 rcx, QWORD PTR __$ArrayPad$[rbp]
  0039d	48 33 cd	 xor	 rcx, rbp
  003a0	e8 00 00 00 00	 call	 __security_check_cookie
  003a5	48 8d a5 88 01
	00 00		 lea	 rsp, QWORD PTR [rbp+392]
  003ac	5f		 pop	 rdi
  003ad	5d		 pop	 rbp
  003ae	c3		 ret	 0
??$?6U?$char_traits@D@std@@@std@@YAAEAV?$basic_ostream@DU?$char_traits@D@std@@@0@AEAV10@PEBD@Z ENDP ; std::operator<<<std::char_traits<char> >
_TEXT	ENDS
; Function compile flags: /Odtp /RTCsu /ZI
;	COMDAT text$x
text$x	SEGMENT
_State$ = 4
_Count$ = 40
_Pad$ = 72
_Ok$ = 104
$T4 = 344
tv285 = 356
tv283 = 356
tv296 = 360
tv295 = 360
tv139 = 360
tv137 = 360
__$ArrayPad$ = 368
_Ostr$ = 416
_Val$ = 424
?dtor$0@?0???$?6U?$char_traits@D@std@@@std@@YAAEAV?$basic_ostream@DU?$char_traits@D@std@@@0@AEAV10@PEBD@Z@4HA PROC ; `std::operator<<<std::char_traits<char> >'::`1'::dtor$0
  00000	48 89 4c 24 08	 mov	 QWORD PTR [rsp+8], rcx
  00005	48 89 54 24 10	 mov	 QWORD PTR [rsp+16], rdx
  0000a	55		 push	 rbp
  0000b	57		 push	 rdi
  0000c	48 83 ec 28	 sub	 rsp, 40			; 00000028H
  00010	48 8d 6a 20	 lea	 rbp, QWORD PTR [rdx+32]
  00014	48 8d 4d 68	 lea	 rcx, QWORD PTR _Ok$[rbp]
  00018	e8 00 00 00 00	 call	 ??1sentry@?$basic_ostream@DU?$char_traits@D@std@@@std@@QEAA@XZ ; std::basic_ostream<char,std::char_traits<char> >::sentry::~sentry
  0001d	48 83 c4 28	 add	 rsp, 40			; 00000028H
  00021	5f		 pop	 rdi
  00022	5d		 pop	 rbp
  00023	c3		 ret	 0
?dtor$0@?0???$?6U?$char_traits@D@std@@@std@@YAAEAV?$basic_ostream@DU?$char_traits@D@std@@@0@AEAV10@PEBD@Z@4HA ENDP ; `std::operator<<<std::char_traits<char> >'::`1'::dtor$0
text$x	ENDS
; Function compile flags: /Odtp /RTCsu /ZI
;	COMDAT text$x
text$x	SEGMENT
_State$ = 4
_Count$ = 40
_Pad$ = 72
_Ok$ = 104
$T4 = 344
tv285 = 356
tv283 = 356
tv296 = 360
tv295 = 360
tv139 = 360
tv137 = 360
__$ArrayPad$ = 368
_Ostr$ = 416
_Val$ = 424
?catch$1@?0???$?6U?$char_traits@D@std@@@std@@YAAEAV?$basic_ostream@DU?$char_traits@D@std@@@0@AEAV10@PEBD@Z@4HA PROC ; `std::operator<<<std::char_traits<char> >'::`1'::catch$1

; 803  :         _CATCH_IO_(ios_base, _Ostr)

  00000	48 89 4c 24 08	 mov	 QWORD PTR [rsp+8], rcx
  00005	48 89 54 24 10	 mov	 QWORD PTR [rsp+16], rdx
  0000a	55		 push	 rbp
  0000b	57		 push	 rdi
  0000c	48 83 ec 28	 sub	 rsp, 40			; 00000028H
  00010	48 8d 6a 20	 lea	 rbp, QWORD PTR [rdx+32]
__catch$??$?6U?$char_traits@D@std@@@std@@YAAEAV?$basic_ostream@DU?$char_traits@D@std@@@0@AEAV10@PEBD@Z$0:
  00014	48 8b 85 a0 01
	00 00		 mov	 rax, QWORD PTR _Ostr$[rbp]
  0001b	48 8b 00	 mov	 rax, QWORD PTR [rax]
  0001e	48 63 40 04	 movsxd	 rax, DWORD PTR [rax+4]
  00022	48 8b 8d a0 01
	00 00		 mov	 rcx, QWORD PTR _Ostr$[rbp]
  00029	48 03 c8	 add	 rcx, rax
  0002c	48 8b c1	 mov	 rax, rcx
  0002f	41 b0 01	 mov	 r8b, 1
  00032	ba 04 00 00 00	 mov	 edx, 4
  00037	48 8b c8	 mov	 rcx, rax
  0003a	ff 15 00 00 00
	00		 call	 QWORD PTR __imp_?setstate@?$basic_ios@DU?$char_traits@D@std@@@std@@QEAAXH_N@Z
  00040	90		 npad	 1
  00041	48 8d 05 00 00
	00 00		 lea	 rax, $LN23@catch$1
  00048	48 83 c4 28	 add	 rsp, 40			; 00000028H
  0004c	5f		 pop	 rdi
  0004d	5d		 pop	 rbp
  0004e	c3		 ret	 0
  0004f	cc		 int	 3
?catch$1@?0???$?6U?$char_traits@D@std@@@std@@YAAEAV?$basic_ostream@DU?$char_traits@D@std@@@0@AEAV10@PEBD@Z@4HA ENDP ; `std::operator<<<std::char_traits<char> >'::`1'::catch$1
text$x	ENDS
; Function compile flags: /Odtp /RTCsu /ZI
; File D:\labs\\lab1\lab1\lab1\ex1.cpp
;	COMDAT main
_TEXT	SEGMENT
day$ = 4
month$ = 36
year$ = 68
dr$ = 100
result$ = 132
numberDay$ = 164
tv206 = 372
tv149 = 372
tv129 = 372
tv87 = 372
tv145 = 376
tv140 = 380
__$ArrayPad$ = 384
main	PROC						; COMDAT

; 8    : int main() {

$LN7:
  00000	40 55		 push	 rbp
  00002	57		 push	 rdi
  00003	48 81 ec b8 01
	00 00		 sub	 rsp, 440		; 000001b8H
  0000a	48 8d 6c 24 20	 lea	 rbp, QWORD PTR [rsp+32]
  0000f	48 8d 7c 24 20	 lea	 rdi, QWORD PTR [rsp+32]
  00014	b9 36 00 00 00	 mov	 ecx, 54			; 00000036H
  00019	b8 cc cc cc cc	 mov	 eax, -858993460		; ccccccccH
  0001e	f3 ab		 rep stosd
  00020	48 8b 05 00 00
	00 00		 mov	 rax, QWORD PTR __security_cookie
  00027	48 33 c5	 xor	 rax, rbp
  0002a	48 89 85 80 01
	00 00		 mov	 QWORD PTR __$ArrayPad$[rbp], rax
  00031	48 8d 0d 00 00
	00 00		 lea	 rcx, OFFSET FLAT:__464727F5_ex1@cpp
  00038	e8 00 00 00 00	 call	 __CheckForDebuggerJustMyCode

; 9    : 	setlocale(LC_ALL, "ru");

  0003d	48 8d 15 00 00
	00 00		 lea	 rdx, OFFSET FLAT:??_C@_02FIDBHGA@ru@
  00044	33 c9		 xor	 ecx, ecx
  00046	ff 15 00 00 00
	00		 call	 QWORD PTR __imp_setlocale

; 10   : 	int day, month, year, dr = 0;

  0004c	c7 45 64 00 00
	00 00		 mov	 DWORD PTR dr$[rbp], 0

; 11   : 
; 12   : 	cout << " : ";

  00053	48 8d 15 00 00
	00 00		 lea	 rdx, OFFSET FLAT:??_C@_0P@DEBEIPA@?B?b?e?d?h?r?e?5?d?e?m?$PM?3?5@
  0005a	48 8b 0d 00 00
	00 00		 mov	 rcx, QWORD PTR __imp_?cout@std@@3V?$basic_ostream@DU?$char_traits@D@std@@@1@A
  00061	e8 00 00 00 00	 call	 ??$?6U?$char_traits@D@std@@@std@@YAAEAV?$basic_ostream@DU?$char_traits@D@std@@@0@AEAV10@PEBD@Z ; std::operator<<<std::char_traits<char> >

; 13   : 	cin >> day;

  00066	48 8d 55 04	 lea	 rdx, QWORD PTR day$[rbp]
  0006a	48 8b 0d 00 00
	00 00		 mov	 rcx, QWORD PTR __imp_?cin@std@@3V?$basic_istream@DU?$char_traits@D@std@@@1@A
  00071	ff 15 00 00 00
	00		 call	 QWORD PTR __imp_??5?$basic_istream@DU?$char_traits@D@std@@@std@@QEAAAEAV01@AEAH@Z

; 14   : 	cout << " : ";

  00077	48 8d 15 00 00
	00 00		 lea	 rdx, OFFSET FLAT:??_C@_0BA@OFEBEDGL@?B?b?e?d?h?r?e?5?l?e?q?$PP?v?3?5@
  0007e	48 8b 0d 00 00
	00 00		 mov	 rcx, QWORD PTR __imp_?cout@std@@3V?$basic_ostream@DU?$char_traits@D@std@@@1@A
  00085	e8 00 00 00 00	 call	 ??$?6U?$char_traits@D@std@@@std@@YAAEAV?$basic_ostream@DU?$char_traits@D@std@@@0@AEAV10@PEBD@Z ; std::operator<<<std::char_traits<char> >

; 15   : 	cin >> month;

  0008a	48 8d 55 24	 lea	 rdx, QWORD PTR month$[rbp]
  0008e	48 8b 0d 00 00
	00 00		 mov	 rcx, QWORD PTR __imp_?cin@std@@3V?$basic_istream@DU?$char_traits@D@std@@@1@A
  00095	ff 15 00 00 00
	00		 call	 QWORD PTR __imp_??5?$basic_istream@DU?$char_traits@D@std@@@std@@QEAAAEAV01@AEAH@Z

; 16   : 	cout << " : ";

  0009b	48 8d 15 00 00
	00 00		 lea	 rdx, OFFSET FLAT:??_C@_0O@POBGICEA@?B?b?e?d?h?r?e?5?c?n?d?3?5@
  000a2	48 8b 0d 00 00
	00 00		 mov	 rcx, QWORD PTR __imp_?cout@std@@3V?$basic_ostream@DU?$char_traits@D@std@@@1@A
  000a9	e8 00 00 00 00	 call	 ??$?6U?$char_traits@D@std@@@std@@YAAEAV?$basic_ostream@DU?$char_traits@D@std@@@0@AEAV10@PEBD@Z ; std::operator<<<std::char_traits<char> >

; 17   : 	cin >> year;

  000ae	48 8d 55 44	 lea	 rdx, QWORD PTR year$[rbp]
  000b2	48 8b 0d 00 00
	00 00		 mov	 rcx, QWORD PTR __imp_?cin@std@@3V?$basic_istream@DU?$char_traits@D@std@@@1@A
  000b9	ff 15 00 00 00
	00		 call	 QWORD PTR __imp_??5?$basic_istream@DU?$char_traits@D@std@@@std@@QEAAAEAV01@AEAH@Z

; 18   : 
; 19   : 	system("cls");

  000bf	48 8d 0d 00 00
	00 00		 lea	 rcx, OFFSET FLAT:??_C@_03LCPHGAHP@cls@
  000c6	ff 15 00 00 00
	00		 call	 QWORD PTR __imp_system

; 20   : 	cout << day / 10 << day % 10 << '.';

  000cc	8b 45 04	 mov	 eax, DWORD PTR day$[rbp]
  000cf	99		 cdq
  000d0	b9 0a 00 00 00	 mov	 ecx, 10
  000d5	f7 f9		 idiv	 ecx
  000d7	8b c2		 mov	 eax, edx
  000d9	89 85 74 01 00
	00		 mov	 DWORD PTR tv87[rbp], eax
  000df	8b 45 04	 mov	 eax, DWORD PTR day$[rbp]
  000e2	99		 cdq
  000e3	b9 0a 00 00 00	 mov	 ecx, 10
  000e8	f7 f9		 idiv	 ecx
  000ea	8b d0		 mov	 edx, eax
  000ec	48 8b 0d 00 00
	00 00		 mov	 rcx, QWORD PTR __imp_?cout@std@@3V?$basic_ostream@DU?$char_traits@D@std@@@1@A
  000f3	ff 15 00 00 00
	00		 call	 QWORD PTR __imp_??6?$basic_ostream@DU?$char_traits@D@std@@@std@@QEAAAEAV01@H@Z
  000f9	8b 8d 74 01 00
	00		 mov	 ecx, DWORD PTR tv87[rbp]
  000ff	8b d1		 mov	 edx, ecx
  00101	48 8b c8	 mov	 rcx, rax
  00104	ff 15 00 00 00
	00		 call	 QWORD PTR __imp_??6?$basic_ostream@DU?$char_traits@D@std@@@std@@QEAAAEAV01@H@Z
  0010a	b2 2e		 mov	 dl, 46			; 0000002eH
  0010c	48 8b c8	 mov	 rcx, rax
  0010f	e8 00 00 00 00	 call	 ??$?6U?$char_traits@D@std@@@std@@YAAEAV?$basic_ostream@DU?$char_traits@D@std@@@0@AEAV10@D@Z ; std::operator<<<std::char_traits<char> >

; 21   : 	cout << month / 10 << month % 10 << '.';

  00114	8b 45 24	 mov	 eax, DWORD PTR month$[rbp]
  00117	99		 cdq
  00118	b9 0a 00 00 00	 mov	 ecx, 10
  0011d	f7 f9		 idiv	 ecx
  0011f	8b c2		 mov	 eax, edx
  00121	89 85 74 01 00
	00		 mov	 DWORD PTR tv129[rbp], eax
  00127	8b 45 24	 mov	 eax, DWORD PTR month$[rbp]
  0012a	99		 cdq
  0012b	b9 0a 00 00 00	 mov	 ecx, 10
  00130	f7 f9		 idiv	 ecx
  00132	8b d0		 mov	 edx, eax
  00134	48 8b 0d 00 00
	00 00		 mov	 rcx, QWORD PTR __imp_?cout@std@@3V?$basic_ostream@DU?$char_traits@D@std@@@1@A
  0013b	ff 15 00 00 00
	00		 call	 QWORD PTR __imp_??6?$basic_ostream@DU?$char_traits@D@std@@@std@@QEAAAEAV01@H@Z
  00141	8b 8d 74 01 00
	00		 mov	 ecx, DWORD PTR tv129[rbp]
  00147	8b d1		 mov	 edx, ecx
  00149	48 8b c8	 mov	 rcx, rax
  0014c	ff 15 00 00 00
	00		 call	 QWORD PTR __imp_??6?$basic_ostream@DU?$char_traits@D@std@@@std@@QEAAAEAV01@H@Z
  00152	b2 2e		 mov	 dl, 46			; 0000002eH
  00154	48 8b c8	 mov	 rcx, rax
  00157	e8 00 00 00 00	 call	 ??$?6U?$char_traits@D@std@@@std@@YAAEAV?$basic_ostream@DU?$char_traits@D@std@@@0@AEAV10@D@Z ; std::operator<<<std::char_traits<char> >

; 22   : 	cout << year / 1000 << (year / 100) % 10 << year / 10 % 10 << year % 10 << '\n';

  0015c	8b 45 44	 mov	 eax, DWORD PTR year$[rbp]
  0015f	99		 cdq
  00160	b9 0a 00 00 00	 mov	 ecx, 10
  00165	f7 f9		 idiv	 ecx
  00167	8b c2		 mov	 eax, edx
  00169	89 85 74 01 00
	00		 mov	 DWORD PTR tv149[rbp], eax
  0016f	8b 45 44	 mov	 eax, DWORD PTR year$[rbp]
  00172	99		 cdq
  00173	b9 0a 00 00 00	 mov	 ecx, 10
  00178	f7 f9		 idiv	 ecx
  0017a	99		 cdq
  0017b	b9 0a 00 00 00	 mov	 ecx, 10
  00180	f7 f9		 idiv	 ecx
  00182	8b c2		 mov	 eax, edx
  00184	89 85 78 01 00
	00		 mov	 DWORD PTR tv145[rbp], eax
  0018a	8b 45 44	 mov	 eax, DWORD PTR year$[rbp]
  0018d	99		 cdq
  0018e	b9 64 00 00 00	 mov	 ecx, 100		; 00000064H
  00193	f7 f9		 idiv	 ecx
  00195	99		 cdq
  00196	b9 0a 00 00 00	 mov	 ecx, 10
  0019b	f7 f9		 idiv	 ecx
  0019d	8b c2		 mov	 eax, edx
  0019f	89 85 7c 01 00
	00		 mov	 DWORD PTR tv140[rbp], eax
  001a5	8b 45 44	 mov	 eax, DWORD PTR year$[rbp]
  001a8	99		 cdq
  001a9	b9 e8 03 00 00	 mov	 ecx, 1000		; 000003e8H
  001ae	f7 f9		 idiv	 ecx
  001b0	8b d0		 mov	 edx, eax
  001b2	48 8b 0d 00 00
	00 00		 mov	 rcx, QWORD PTR __imp_?cout@std@@3V?$basic_ostream@DU?$char_traits@D@std@@@1@A
  001b9	ff 15 00 00 00
	00		 call	 QWORD PTR __imp_??6?$basic_ostream@DU?$char_traits@D@std@@@std@@QEAAAEAV01@H@Z
  001bf	8b 8d 7c 01 00
	00		 mov	 ecx, DWORD PTR tv140[rbp]
  001c5	8b d1		 mov	 edx, ecx
  001c7	48 8b c8	 mov	 rcx, rax
  001ca	ff 15 00 00 00
	00		 call	 QWORD PTR __imp_??6?$basic_ostream@DU?$char_traits@D@std@@@std@@QEAAAEAV01@H@Z
  001d0	8b 8d 78 01 00
	00		 mov	 ecx, DWORD PTR tv145[rbp]
  001d6	8b d1		 mov	 edx, ecx
  001d8	48 8b c8	 mov	 rcx, rax
  001db	ff 15 00 00 00
	00		 call	 QWORD PTR __imp_??6?$basic_ostream@DU?$char_traits@D@std@@@std@@QEAAAEAV01@H@Z
  001e1	8b 8d 74 01 00
	00		 mov	 ecx, DWORD PTR tv149[rbp]
  001e7	8b d1		 mov	 edx, ecx
  001e9	48 8b c8	 mov	 rcx, rax
  001ec	ff 15 00 00 00
	00		 call	 QWORD PTR __imp_??6?$basic_ostream@DU?$char_traits@D@std@@@std@@QEAAAEAV01@H@Z
  001f2	b2 0a		 mov	 dl, 10
  001f4	48 8b c8	 mov	 rcx, rax
  001f7	e8 00 00 00 00	 call	 ??$?6U?$char_traits@D@std@@@std@@YAAEAV?$basic_ostream@DU?$char_traits@D@std@@@0@AEAV10@D@Z ; std::operator<<<std::char_traits<char> >

; 23   : 
; 24   : 	if (day <= 0 || day > 31 || month <= 0 || month > 12 || year < 0) {

  001fc	83 7d 04 00	 cmp	 DWORD PTR day$[rbp], 0
  00200	7e 18		 jle	 SHORT $LN3@main
  00202	83 7d 04 1f	 cmp	 DWORD PTR day$[rbp], 31
  00206	7f 12		 jg	 SHORT $LN3@main
  00208	83 7d 24 00	 cmp	 DWORD PTR month$[rbp], 0
  0020c	7e 0c		 jle	 SHORT $LN3@main
  0020e	83 7d 24 0c	 cmp	 DWORD PTR month$[rbp], 12
  00212	7f 06		 jg	 SHORT $LN3@main
  00214	83 7d 44 00	 cmp	 DWORD PTR year$[rbp], 0
  00218	7d 2b		 jge	 SHORT $LN2@main
$LN3@main:

; 25   : 		system("cls");

  0021a	48 8d 0d 00 00
	00 00		 lea	 rcx, OFFSET FLAT:??_C@_03LCPHGAHP@cls@
  00221	ff 15 00 00 00
	00		 call	 QWORD PTR __imp_system

; 26   : 		cout << "fail";

  00227	48 8d 15 00 00
	00 00		 lea	 rdx, OFFSET FLAT:??_C@_04CCHLMOGN@fail@
  0022e	48 8b 0d 00 00
	00 00		 mov	 rcx, QWORD PTR __imp_?cout@std@@3V?$basic_ostream@DU?$char_traits@D@std@@@1@A
  00235	e8 00 00 00 00	 call	 ??$?6U?$char_traits@D@std@@@std@@YAAEAV?$basic_ostream@DU?$char_traits@D@std@@@0@AEAV10@PEBD@Z ; std::operator<<<std::char_traits<char> >

; 27   : 		exit(EXIT_FAILURE);

  0023a	b9 01 00 00 00	 mov	 ecx, 1
  0023f	ff 15 00 00 00
	00		 call	 QWORD PTR __imp_exit
$LN2@main:

; 28   : 	}
; 29   : 
; 30   : 	bool result = leapYear(year);

  00245	8b 4d 44	 mov	 ecx, DWORD PTR year$[rbp]
  00248	e8 00 00 00 00	 call	 ?leapYear@@YA_NH@Z	; leapYear
  0024d	88 85 84 00 00
	00		 mov	 BYTE PTR result$[rbp], al

; 31   : 	if(result)

  00253	0f b6 85 84 00
	00 00		 movzx	 eax, BYTE PTR result$[rbp]
  0025a	85 c0		 test	 eax, eax
  0025c	74 31		 je	 SHORT $LN4@main

; 32   : 		std::cout << year << "    ." << std::endl;

  0025e	8b 55 44	 mov	 edx, DWORD PTR year$[rbp]
  00261	48 8b 0d 00 00
	00 00		 mov	 rcx, QWORD PTR __imp_?cout@std@@3V?$basic_ostream@DU?$char_traits@D@std@@@1@A
  00268	ff 15 00 00 00
	00		 call	 QWORD PTR __imp_??6?$basic_ostream@DU?$char_traits@D@std@@@std@@QEAAAEAV01@H@Z
  0026e	48 8d 15 00 00
	00 00		 lea	 rdx, OFFSET FLAT:??_C@_0CA@BIFHHEDL@?5?c?n?d?5?$PP?b?k?$PP?e?r?q?$PP?5?b?h?q?n?j?n?q?m?$PL?l?5?c?n?d?n?l?4@
  00275	48 8b c8	 mov	 rcx, rax
  00278	e8 00 00 00 00	 call	 ??$?6U?$char_traits@D@std@@@std@@YAAEAV?$basic_ostream@DU?$char_traits@D@std@@@0@AEAV10@PEBD@Z ; std::operator<<<std::char_traits<char> >
  0027d	48 8d 15 00 00
	00 00		 lea	 rdx, OFFSET FLAT:??$endl@DU?$char_traits@D@std@@@std@@YAAEAV?$basic_ostream@DU?$char_traits@D@std@@@0@AEAV10@@Z ; std::endl<char,std::char_traits<char> >
  00284	48 8b c8	 mov	 rcx, rax
  00287	ff 15 00 00 00
	00		 call	 QWORD PTR __imp_??6?$basic_ostream@DU?$char_traits@D@std@@@std@@QEAAAEAV01@P6AAEAV01@AEAV01@@Z@Z
  0028d	eb 2f		 jmp	 SHORT $LN5@main
$LN4@main:

; 33   : 	else
; 34   : 		std::cout << year << "     ." << std::endl;

  0028f	8b 55 44	 mov	 edx, DWORD PTR year$[rbp]
  00292	48 8b 0d 00 00
	00 00		 mov	 rcx, QWORD PTR __imp_?cout@std@@3V?$basic_ostream@DU?$char_traits@D@std@@@1@A
  00299	ff 15 00 00 00
	00		 call	 QWORD PTR __imp_??6?$basic_ostream@DU?$char_traits@D@std@@@std@@QEAAAEAV01@H@Z
  0029f	48 8d 15 00 00
	00 00		 lea	 rdx, OFFSET FLAT:??_C@_0CD@BCOCLHI@?5?c?n?d?5?m?e?5?$PP?b?k?$PP?e?r?q?$PP?5?b?h?q?n?j?n?q?m?$PL?l?5?c?n?d@
  002a6	48 8b c8	 mov	 rcx, rax
  002a9	e8 00 00 00 00	 call	 ??$?6U?$char_traits@D@std@@@std@@YAAEAV?$basic_ostream@DU?$char_traits@D@std@@@0@AEAV10@PEBD@Z ; std::operator<<<std::char_traits<char> >
  002ae	48 8d 15 00 00
	00 00		 lea	 rdx, OFFSET FLAT:??$endl@DU?$char_traits@D@std@@@std@@YAAEAV?$basic_ostream@DU?$char_traits@D@std@@@0@AEAV10@@Z ; std::endl<char,std::char_traits<char> >
  002b5	48 8b c8	 mov	 rcx, rax
  002b8	ff 15 00 00 00
	00		 call	 QWORD PTR __imp_??6?$basic_ostream@DU?$char_traits@D@std@@@std@@QEAAAEAV01@P6AAEAV01@AEAV01@@Z@Z
$LN5@main:

; 35   : 
; 36   : 	int numberDay = days(day, month, dr, result);

  002be	44 0f b6 8d 84
	00 00 00	 movzx	 r9d, BYTE PTR result$[rbp]
  002c6	44 8b 45 64	 mov	 r8d, DWORD PTR dr$[rbp]
  002ca	8b 55 24	 mov	 edx, DWORD PTR month$[rbp]
  002cd	8b 4d 04	 mov	 ecx, DWORD PTR day$[rbp]
  002d0	e8 00 00 00 00	 call	 ?days@@YAHHHH_N@Z	; days
  002d5	89 85 a4 00 00
	00		 mov	 DWORD PTR numberDay$[rbp], eax

; 37   : 	cout << "    " << year << " : " << numberDay << endl;

  002db	48 8d 15 00 00
	00 00		 lea	 rdx, OFFSET FLAT:??_C@_0BI@LBHFLDPH@?O?n?p?$PP?d?j?n?b?$PL?i?5?m?n?l?e?p?5?d?m?$PP?5?b?5@
  002e2	48 8b 0d 00 00
	00 00		 mov	 rcx, QWORD PTR __imp_?cout@std@@3V?$basic_ostream@DU?$char_traits@D@std@@@1@A
  002e9	e8 00 00 00 00	 call	 ??$?6U?$char_traits@D@std@@@std@@YAAEAV?$basic_ostream@DU?$char_traits@D@std@@@0@AEAV10@PEBD@Z ; std::operator<<<std::char_traits<char> >
  002ee	8b 55 44	 mov	 edx, DWORD PTR year$[rbp]
  002f1	48 8b c8	 mov	 rcx, rax
  002f4	ff 15 00 00 00
	00		 call	 QWORD PTR __imp_??6?$basic_ostream@DU?$char_traits@D@std@@@std@@QEAAAEAV01@H@Z
  002fa	48 8d 15 00 00
	00 00		 lea	 rdx, OFFSET FLAT:??_C@_07IIFCBIAK@?5?c?n?d?s?3?5@
  00301	48 8b c8	 mov	 rcx, rax
  00304	e8 00 00 00 00	 call	 ??$?6U?$char_traits@D@std@@@std@@YAAEAV?$basic_ostream@DU?$char_traits@D@std@@@0@AEAV10@PEBD@Z ; std::operator<<<std::char_traits<char> >
  00309	8b 95 a4 00 00
	00		 mov	 edx, DWORD PTR numberDay$[rbp]
  0030f	48 8b c8	 mov	 rcx, rax
  00312	ff 15 00 00 00
	00		 call	 QWORD PTR __imp_??6?$basic_ostream@DU?$char_traits@D@std@@@std@@QEAAAEAV01@H@Z
  00318	48 8d 15 00 00
	00 00		 lea	 rdx, OFFSET FLAT:??$endl@DU?$char_traits@D@std@@@std@@YAAEAV?$basic_ostream@DU?$char_traits@D@std@@@0@AEAV10@@Z ; std::endl<char,std::char_traits<char> >
  0031f	48 8b c8	 mov	 rcx, rax
  00322	ff 15 00 00 00
	00		 call	 QWORD PTR __imp_??6?$basic_ostream@DU?$char_traits@D@std@@@std@@QEAAAEAV01@P6AAEAV01@AEAV01@@Z@Z

; 38   : 
; 39   : 	cout << " " << birthday(year, numberDay, result) << "   9 ." << endl;

  00328	44 0f b6 85 84
	00 00 00	 movzx	 r8d, BYTE PTR result$[rbp]
  00330	8b 95 a4 00 00
	00		 mov	 edx, DWORD PTR numberDay$[rbp]
  00336	8b 4d 44	 mov	 ecx, DWORD PTR year$[rbp]
  00339	e8 00 00 00 00	 call	 ?birthday@@YAHHH_N@Z	; birthday
  0033e	89 85 74 01 00
	00		 mov	 DWORD PTR tv206[rbp], eax
  00344	48 8d 15 00 00
	00 00		 lea	 rdx, OFFSET FLAT:??_C@_09LJIHIGEJ@?N?q?r?$OA?k?n?q?$PM?5@
  0034b	48 8b 0d 00 00
	00 00		 mov	 rcx, QWORD PTR __imp_?cout@std@@3V?$basic_ostream@DU?$char_traits@D@std@@@1@A
  00352	e8 00 00 00 00	 call	 ??$?6U?$char_traits@D@std@@@std@@YAAEAV?$basic_ostream@DU?$char_traits@D@std@@@0@AEAV10@PEBD@Z ; std::operator<<<std::char_traits<char> >
  00357	8b 8d 74 01 00
	00		 mov	 ecx, DWORD PTR tv206[rbp]
  0035d	8b d1		 mov	 edx, ecx
  0035f	48 8b c8	 mov	 rcx, rax
  00362	ff 15 00 00 00
	00		 call	 QWORD PTR __imp_??6?$basic_ostream@DU?$char_traits@D@std@@@std@@QEAAAEAV01@H@Z
  00368	48 8d 15 00 00
	00 00		 lea	 rdx, OFFSET FLAT:??_C@_0BD@OECKIDLN@?5?d?m?e?i?5?d?n?59?5?m?n?$PP?a?p?$PP?4@
  0036f	48 8b c8	 mov	 rcx, rax
  00372	e8 00 00 00 00	 call	 ??$?6U?$char_traits@D@std@@@std@@YAAEAV?$basic_ostream@DU?$char_traits@D@std@@@0@AEAV10@PEBD@Z ; std::operator<<<std::char_traits<char> >
  00377	48 8d 15 00 00
	00 00		 lea	 rdx, OFFSET FLAT:??$endl@DU?$char_traits@D@std@@@std@@YAAEAV?$basic_ostream@DU?$char_traits@D@std@@@0@AEAV10@@Z ; std::endl<char,std::char_traits<char> >
  0037e	48 8b c8	 mov	 rcx, rax
  00381	ff 15 00 00 00
	00		 call	 QWORD PTR __imp_??6?$basic_ostream@DU?$char_traits@D@std@@@std@@QEAAAEAV01@P6AAEAV01@AEAV01@@Z@Z

; 40   : 
; 41   : 	return 0;

  00387	33 c0		 xor	 eax, eax
$LN6@main:

; 42   : }

  00389	48 8b f8	 mov	 rdi, rax
  0038c	48 8d 4d e0	 lea	 rcx, QWORD PTR [rbp-32]
  00390	48 8d 15 00 00
	00 00		 lea	 rdx, OFFSET FLAT:main$rtcFrameData
  00397	e8 00 00 00 00	 call	 _RTC_CheckStackVars
  0039c	48 8b c7	 mov	 rax, rdi
  0039f	48 8b 8d 80 01
	00 00		 mov	 rcx, QWORD PTR __$ArrayPad$[rbp]
  003a6	48 33 cd	 xor	 rcx, rbp
  003a9	e8 00 00 00 00	 call	 __security_check_cookie
  003ae	48 8d a5 98 01
	00 00		 lea	 rsp, QWORD PTR [rbp+408]
  003b5	5f		 pop	 rdi
  003b6	5d		 pop	 rbp
  003b7	c3		 ret	 0
main	ENDP
_TEXT	ENDS
; Function compile flags: /Odtp /RTCsu /ZI
; File D:\Visual Studio\2022\Community\VC\Tools\MSVC\14.38.33130\include\xstring
;	COMDAT ?eof@?$_Narrow_char_traits@DH@std@@SAHXZ
_TEXT	SEGMENT
?eof@?$_Narrow_char_traits@DH@std@@SAHXZ PROC		; std::_Narrow_char_traits<char,int>::eof, COMDAT

; 471  :     _NODISCARD static constexpr int_type eof() noexcept {

$LN3:
  00000	40 55		 push	 rbp
  00002	57		 push	 rdi
  00003	48 81 ec e8 00
	00 00		 sub	 rsp, 232		; 000000e8H
  0000a	48 8d 6c 24 20	 lea	 rbp, QWORD PTR [rsp+32]
  0000f	48 8d 0d 00 00
	00 00		 lea	 rcx, OFFSET FLAT:__C12CFDA6_xstring
  00016	e8 00 00 00 00	 call	 __CheckForDebuggerJustMyCode

; 472  :         return static_cast<int_type>(EOF);

  0001b	b8 ff ff ff ff	 mov	 eax, -1

; 473  :     }

  00020	48 8d a5 c8 00
	00 00		 lea	 rsp, QWORD PTR [rbp+200]
  00027	5f		 pop	 rdi
  00028	5d		 pop	 rbp
  00029	c3		 ret	 0
?eof@?$_Narrow_char_traits@DH@std@@SAHXZ ENDP		; std::_Narrow_char_traits<char,int>::eof
_TEXT	ENDS
; Function compile flags: /Odtp /RTCsu /ZI
; File D:\Visual Studio\2022\Community\VC\Tools\MSVC\14.38.33130\include\xstring
;	COMDAT ?eq_int_type@?$_Narrow_char_traits@DH@std@@SA_NHH@Z
_TEXT	SEGMENT
tv65 = 192
_Left$ = 240
_Right$ = 248
?eq_int_type@?$_Narrow_char_traits@DH@std@@SA_NHH@Z PROC ; std::_Narrow_char_traits<char,int>::eq_int_type, COMDAT

; 463  :     _NODISCARD static constexpr bool eq_int_type(const int_type _Left, const int_type _Right) noexcept {

$LN5:
  00000	89 54 24 10	 mov	 DWORD PTR [rsp+16], edx
  00004	89 4c 24 08	 mov	 DWORD PTR [rsp+8], ecx
  00008	55		 push	 rbp
  00009	57		 push	 rdi
  0000a	48 81 ec f8 00
	00 00		 sub	 rsp, 248		; 000000f8H
  00011	48 8d 6c 24 20	 lea	 rbp, QWORD PTR [rsp+32]
  00016	48 8d 0d 00 00
	00 00		 lea	 rcx, OFFSET FLAT:__C12CFDA6_xstring
  0001d	e8 00 00 00 00	 call	 __CheckForDebuggerJustMyCode

; 464  :         return _Left == _Right;

  00022	8b 85 f8 00 00
	00		 mov	 eax, DWORD PTR _Right$[rbp]
  00028	39 85 f0 00 00
	00		 cmp	 DWORD PTR _Left$[rbp], eax
  0002e	75 0c		 jne	 SHORT $LN3@eq_int_typ
  00030	c7 85 c0 00 00
	00 01 00 00 00	 mov	 DWORD PTR tv65[rbp], 1
  0003a	eb 0a		 jmp	 SHORT $LN4@eq_int_typ
$LN3@eq_int_typ:
  0003c	c7 85 c0 00 00
	00 00 00 00 00	 mov	 DWORD PTR tv65[rbp], 0
$LN4@eq_int_typ:
  00046	0f b6 85 c0 00
	00 00		 movzx	 eax, BYTE PTR tv65[rbp]

; 465  :     }

  0004d	48 8d a5 d8 00
	00 00		 lea	 rsp, QWORD PTR [rbp+216]
  00054	5f		 pop	 rdi
  00055	5d		 pop	 rbp
  00056	c3		 ret	 0
?eq_int_type@?$_Narrow_char_traits@DH@std@@SA_NHH@Z ENDP ; std::_Narrow_char_traits<char,int>::eq_int_type
_TEXT	ENDS
; Function compile flags: /Odtp /RTCsu /ZI
; File D:\Visual Studio\2022\Community\VC\Tools\MSVC\14.38.33130\include\xstring
;	COMDAT ?length@?$_Narrow_char_traits@DH@std@@SA_KQEBD@Z
_TEXT	SEGMENT
_First$ = 224
?length@?$_Narrow_char_traits@DH@std@@SA_KQEBD@Z PROC	; std::_Narrow_char_traits<char,int>::length, COMDAT

; 385  :     _NODISCARD static _CONSTEXPR17 size_t length(_In_z_ const _Elem* const _First) noexcept /* strengthened */ {

$LN3:
  00000	48 89 4c 24 08	 mov	 QWORD PTR [rsp+8], rcx
  00005	55		 push	 rbp
  00006	57		 push	 rdi
  00007	48 81 ec e8 00
	00 00		 sub	 rsp, 232		; 000000e8H
  0000e	48 8d 6c 24 20	 lea	 rbp, QWORD PTR [rsp+32]
  00013	48 8d 0d 00 00
	00 00		 lea	 rcx, OFFSET FLAT:__C12CFDA6_xstring
  0001a	e8 00 00 00 00	 call	 __CheckForDebuggerJustMyCode

; 386  :         // find length of null-terminated string
; 387  : #if _HAS_CXX17
; 388  : #ifdef __cpp_char8_t
; 389  :         if constexpr (is_same_v<_Elem, char8_t>) {
; 390  : #if _HAS_U8_INTRINSICS
; 391  :             return __builtin_u8strlen(_First);
; 392  : #else // ^^^ use u8 intrinsics / no u8 intrinsics vvv
; 393  :             return _Primary_char_traits::length(_First);
; 394  : #endif // ^^^ no u8 intrinsics ^^^
; 395  :         } else
; 396  : #endif // defined(__cpp_char8_t)
; 397  :         {
; 398  :             return __builtin_strlen(_First);
; 399  :         }
; 400  : #else // ^^^ _HAS_CXX17 / !_HAS_CXX17 vvv
; 401  :         return _CSTD strlen(reinterpret_cast<const char*>(_First));

  0001f	48 8b 8d e0 00
	00 00		 mov	 rcx, QWORD PTR _First$[rbp]
  00026	e8 00 00 00 00	 call	 strlen

; 402  : #endif // ^^^ !_HAS_CXX17 ^^^
; 403  :     }

  0002b	48 8d a5 c8 00
	00 00		 lea	 rsp, QWORD PTR [rbp+200]
  00032	5f		 pop	 rdi
  00033	5d		 pop	 rbp
  00034	c3		 ret	 0
?length@?$_Narrow_char_traits@DH@std@@SA_KQEBD@Z ENDP	; std::_Narrow_char_traits<char,int>::length
_TEXT	ENDS
; Function compile flags: /Odtp /RTCsu /ZI
; File D:\labs\\lab1\lab1\lab1\ex1.cpp
;	COMDAT ?__empty_global_delete@@YAXPEAX_K@Z
_TEXT	SEGMENT
__formal$ = 224
__formal$ = 232
?__empty_global_delete@@YAXPEAX_K@Z PROC		; __empty_global_delete, COMDAT

$LN3:
  00000	48 89 54 24 10	 mov	 QWORD PTR [rsp+16], rdx
  00005	48 89 4c 24 08	 mov	 QWORD PTR [rsp+8], rcx
  0000a	55		 push	 rbp
  0000b	57		 push	 rdi
  0000c	48 81 ec e8 00
	00 00		 sub	 rsp, 232		; 000000e8H
  00013	48 8d 6c 24 20	 lea	 rbp, QWORD PTR [rsp+32]
  00018	48 8d 0d 00 00
	00 00		 lea	 rcx, OFFSET FLAT:__464727F5_ex1@cpp
  0001f	e8 00 00 00 00	 call	 __CheckForDebuggerJustMyCode
  00024	48 8d a5 c8 00
	00 00		 lea	 rsp, QWORD PTR [rbp+200]
  0002b	5f		 pop	 rdi
  0002c	5d		 pop	 rbp
  0002d	c3		 ret	 0
?__empty_global_delete@@YAXPEAX_K@Z ENDP		; __empty_global_delete
_TEXT	ENDS
; Function compile flags: /Odtp /RTCsu /ZI
; File D:\labs\\lab1\lab1\lab1\ex1.cpp
;	COMDAT ?__empty_global_delete@@YAXPEAX@Z
_TEXT	SEGMENT
__formal$ = 224
?__empty_global_delete@@YAXPEAX@Z PROC			; __empty_global_delete, COMDAT

$LN3:
  00000	48 89 4c 24 08	 mov	 QWORD PTR [rsp+8], rcx
  00005	55		 push	 rbp
  00006	57		 push	 rdi
  00007	48 81 ec e8 00
	00 00		 sub	 rsp, 232		; 000000e8H
  0000e	48 8d 6c 24 20	 lea	 rbp, QWORD PTR [rsp+32]
  00013	48 8d 0d 00 00
	00 00		 lea	 rcx, OFFSET FLAT:__464727F5_ex1@cpp
  0001a	e8 00 00 00 00	 call	 __CheckForDebuggerJustMyCode
  0001f	48 8d a5 c8 00
	00 00		 lea	 rsp, QWORD PTR [rbp+200]
  00026	5f		 pop	 rdi
  00027	5d		 pop	 rbp
  00028	c3		 ret	 0
?__empty_global_delete@@YAXPEAX@Z ENDP			; __empty_global_delete
_TEXT	ENDS
END
